
output\a.out:     file format elf32-littlearm


Disassembly of section .text:

00000000 <__isr_vector>:
       0:	10011000 	.word	0x10011000
       4:	0000a17d 	.word	0x0000a17d
       8:	0000a1e9 	.word	0x0000a1e9
       c:	0000a1e9 	.word	0x0000a1e9
	...
      3c:	00004115 	.word	0x00004115
      40:	0000a1e9 	.word	0x0000a1e9
      44:	0000a1e9 	.word	0x0000a1e9
      48:	0000a1e9 	.word	0x0000a1e9
      4c:	0000a1e9 	.word	0x0000a1e9
      50:	0000a1e9 	.word	0x0000a1e9
      54:	0000a1e9 	.word	0x0000a1e9
      58:	0000a1e9 	.word	0x0000a1e9
      5c:	0000a1e9 	.word	0x0000a1e9
      60:	0000a1e9 	.word	0x0000a1e9
      64:	0000a1e9 	.word	0x0000a1e9
      68:	0000a1e9 	.word	0x0000a1e9

0000006c <check_adc_init>:
#endif //VP_TEST

void check_adc_value();

void check_adc_init()
{
      6c:	b580      	push	{r7, lr}
      6e:	b084      	sub	sp, #16
      70:	af00      	add	r7, sp, #0
	uint8_t tem;
	tem = HREAD(mem_adac_init);
      72:	4a1b      	ldr	r2, [pc, #108]	; (e0 <check_adc_init+0x74>)
      74:	1dfb      	adds	r3, r7, #7
      76:	7812      	ldrb	r2, [r2, #0]
      78:	701a      	strb	r2, [r3, #0]
	if (tem == 1)
      7a:	1dfb      	adds	r3, r7, #7
      7c:	781b      	ldrb	r3, [r3, #0]
      7e:	2b01      	cmp	r3, #1
      80:	d12a      	bne.n	d8 <check_adc_init+0x6c>
	{
		tem = HREAD(0x897f);
      82:	4a18      	ldr	r2, [pc, #96]	; (e4 <check_adc_init+0x78>)
      84:	1dfb      	adds	r3, r7, #7
      86:	7812      	ldrb	r2, [r2, #0]
      88:	701a      	strb	r2, [r3, #0]
		tem = tem|0x01;
      8a:	1dfb      	adds	r3, r7, #7
      8c:	1dfa      	adds	r2, r7, #7
      8e:	7812      	ldrb	r2, [r2, #0]
      90:	2101      	movs	r1, #1
      92:	430a      	orrs	r2, r1
      94:	701a      	strb	r2, [r3, #0]
		HWRITE(0x897f,tem);
      96:	4a13      	ldr	r2, [pc, #76]	; (e4 <check_adc_init+0x78>)
      98:	1dfb      	adds	r3, r7, #7
      9a:	781b      	ldrb	r3, [r3, #0]
      9c:	7013      	strb	r3, [r2, #0]
	
		HWRITE(0x897e,0xf3);	
      9e:	4b12      	ldr	r3, [pc, #72]	; (e8 <check_adc_init+0x7c>)
      a0:	22f3      	movs	r2, #243	; 0xf3
      a2:	701a      	strb	r2, [r3, #0]
		HWRITE(0x897e,0xE3);
      a4:	4b10      	ldr	r3, [pc, #64]	; (e8 <check_adc_init+0x7c>)
      a6:	22e3      	movs	r2, #227	; 0xe3
      a8:	701a      	strb	r2, [r3, #0]
		for (int j =100;j>0;j--)
      aa:	2364      	movs	r3, #100	; 0x64
      ac:	60fb      	str	r3, [r7, #12]
      ae:	e00a      	b.n	c6 <check_adc_init+0x5a>
		{
			int i = 10000;
      b0:	4b0e      	ldr	r3, [pc, #56]	; (ec <check_adc_init+0x80>)
      b2:	60bb      	str	r3, [r7, #8]
			while(i--);
      b4:	46c0      	nop			; (mov r8, r8)
      b6:	68bb      	ldr	r3, [r7, #8]
      b8:	1e5a      	subs	r2, r3, #1
      ba:	60ba      	str	r2, [r7, #8]
      bc:	2b00      	cmp	r3, #0
      be:	d1fa      	bne.n	b6 <check_adc_init+0x4a>
		tem = tem|0x01;
		HWRITE(0x897f,tem);
	
		HWRITE(0x897e,0xf3);	
		HWRITE(0x897e,0xE3);
		for (int j =100;j>0;j--)
      c0:	68fb      	ldr	r3, [r7, #12]
      c2:	3b01      	subs	r3, #1
      c4:	60fb      	str	r3, [r7, #12]
      c6:	68fb      	ldr	r3, [r7, #12]
      c8:	2b00      	cmp	r3, #0
      ca:	dcf1      	bgt.n	b0 <check_adc_init+0x44>
		{
			int i = 10000;
			while(i--);
		}
		HWRITE(0x897e,0xf3);
      cc:	4b06      	ldr	r3, [pc, #24]	; (e8 <check_adc_init+0x7c>)
      ce:	22f3      	movs	r2, #243	; 0xf3
      d0:	701a      	strb	r2, [r3, #0]
		HWRITE(mem_adac_init,2);
      d2:	4b03      	ldr	r3, [pc, #12]	; (e0 <check_adc_init+0x74>)
      d4:	2202      	movs	r2, #2
      d6:	701a      	strb	r2, [r3, #0]
	}
}
      d8:	46c0      	nop			; (mov r8, r8)
      da:	46bd      	mov	sp, r7
      dc:	b004      	add	sp, #16
      de:	bd80      	pop	{r7, pc}
      e0:	10004b3f 	.word	0x10004b3f
      e4:	1000897f 	.word	0x1000897f
      e8:	1000897e 	.word	0x1000897e
      ec:	00002710 	.word	0x00002710

000000f0 <main>:

void main()
{	
      f0:	b580      	push	{r7, lr}
      f2:	af00      	add	r7, sp, #0
	//ipc init
	IPC_init(&gTIPCHandleCb);
      f4:	4b27      	ldr	r3, [pc, #156]	; (194 <Stack_Size+0x94>)
      f6:	0018      	movs	r0, r3
      f8:	f006 fadc 	bl	66b4 <IPC_init>

	//debug info
	DEBUG_INIT();
      fc:	46c0      	nop			; (mov r8, r8)
#ifdef HW_WATCH_DOG_FUNC
	//Watch Dog
	WDT_Enable();
      fe:	f009 fd7f 	bl	9c00 <WDT_Enable>

	//HWRITE(0x8097,62);

	while (1) {
		//For respin log print
		DEBUG_POLLING_PRINT();
     102:	46c0      	nop			; (mov r8, r8)
#ifdef HW_WATCH_DOG_FUNC
		WDT_Kick();
     104:	f009 fdb0 	bl	9c68 <WDT_Kick>
#endif
		Bt_RoundBufferMonitor();
     108:	f002 fcc6 	bl	2a98 <Bt_RoundBufferMonitor>
		switch (HREAD(IPC_MCU_STATE))
     10c:	4b22      	ldr	r3, [pc, #136]	; (198 <Stack_Size+0x98>)
     10e:	781b      	ldrb	r3, [r3, #0]
     110:	b2db      	uxtb	r3, r3
     112:	2b01      	cmp	r3, #1
     114:	d035      	beq.n	182 <Stack_Size+0x82>
     116:	dc02      	bgt.n	11e <Stack_Size+0x1e>
     118:	2b00      	cmp	r3, #0
     11a:	d003      	beq.n	124 <Stack_Size+0x24>
     11c:	e038      	b.n	190 <Stack_Size+0x90>
     11e:	2b02      	cmp	r3, #2
     120:	d020      	beq.n	164 <Stack_Size+0x64>
				OS_ENTER_CRITICAL();
				Bt_ActionBeforeHibernate();
				HWRITE(IPC_MCU_STATE,IPC_MCU_STATE_STOP);
				break;
			case IPC_MCU_STATE_STOP:
				break;
     122:	e035      	b.n	190 <Stack_Size+0x90>
		Bt_RoundBufferMonitor();
		switch (HREAD(IPC_MCU_STATE))
		{
			case IPC_MCU_STATE_RUNNING:
				//always first init bt
				IPC_HandleRxPacket();
     124:	f006 fce4 	bl	6af0 <IPC_HandleRxPacket>
				//Bt_watchdog();
				if (gBRState.topState != BR_POWER_OFF){
     128:	4b1c      	ldr	r3, [pc, #112]	; (19c <Stack_Size+0x9c>)
     12a:	7e1b      	ldrb	r3, [r3, #24]
     12c:	2b00      	cmp	r3, #0
     12e:	d015      	beq.n	15c <Stack_Size+0x5c>
					SYS_timerPolling();
     130:	f003 ff32 	bl	3f98 <SYS_timerPolling>
					keypad_polling_keyQueue();
     134:	f006 f920 	bl	6378 <keypad_polling_keyQueue>
					led_polling_Queue();
     138:	f007 fa18 	bl	756c <led_polling_Queue>
					VP_polling_Queue();
     13c:	f009 f886 	bl	924c <VP_polling_Queue>
					Bt_CheckWaitPwroff();
     140:	f001 ff50 	bl	1fe4 <Bt_CheckWaitPwroff>
					BT_twsCheckProfileConnected();
     144:	f002 fbda 	bl	28fc <BT_twsCheckProfileConnected>
					#ifdef SCO_48K_FIR
					sco_fir_polling();
     148:	f00a fb20 	bl	a78c <sco_fir_polling>
					#endif //SCO_48K_FIR
					Bat_polling();
     14c:	f009 fac4 	bl	96d8 <Bat_polling>
					Drv_check_rssi();
     150:	f002 fca8 	bl	2aa4 <Drv_check_rssi>
					check_adc_init();
     154:	f7ff ff8a 	bl	6c <check_adc_init>
					Drv_media_polling();
     158:	f00a fc84 	bl	aa64 <Drv_media_polling>
				}
				Lpm_unLockLpm(M0_LPM_FLAG);
     15c:	2040      	movs	r0, #64	; 0x40
     15e:	f006 fdd9 	bl	6d14 <Lpm_unLockLpm>
				break;
     162:	e015      	b.n	190 <Stack_Size+0x90>
			case IPC_MCU_STATE_LMP:
				if (IPC_IsTxBuffEmpty()
     164:	f006 fc88 	bl	6a78 <IPC_IsTxBuffEmpty>
     168:	1e03      	subs	r3, r0, #0
     16a:	d006      	beq.n	17a <Stack_Size+0x7a>
  \details Disables IRQ interrupts by setting the I-bit in the CPSR.
  Can only be executed in Privileged modes.
 */
__attribute__( ( always_inline ) ) __STATIC_INLINE void __disable_irq(void)
{
  __ASM volatile ("cpsid i" : : : "memory");
     16c:	b672      	cpsid	i
					&& DEBUG_LOG_BUFFER_IS_EMPTY()){
					OS_ENTER_CRITICAL();
					Bt_ActionBeforeLpm();
     16e:	f002 f903 	bl	2378 <Bt_ActionBeforeLpm>
					HWRITE(IPC_MCU_STATE,IPC_MCU_STATE_STOP);
     172:	4b09      	ldr	r3, [pc, #36]	; (198 <Stack_Size+0x98>)
     174:	2203      	movs	r2, #3
     176:	701a      	strb	r2, [r3, #0]
				}
				else{
					HWRITE(IPC_MCU_STATE,IPC_MCU_STATE_RUNNING);
				}
				break;
     178:	e00a      	b.n	190 <Stack_Size+0x90>
					OS_ENTER_CRITICAL();
					Bt_ActionBeforeLpm();
					HWRITE(IPC_MCU_STATE,IPC_MCU_STATE_STOP);
				}
				else{
					HWRITE(IPC_MCU_STATE,IPC_MCU_STATE_RUNNING);
     17a:	4b07      	ldr	r3, [pc, #28]	; (198 <Stack_Size+0x98>)
     17c:	2200      	movs	r2, #0
     17e:	701a      	strb	r2, [r3, #0]
				}
				break;
     180:	e006      	b.n	190 <Stack_Size+0x90>
     182:	b672      	cpsid	i

			case IPC_MCU_STATE_HIBERNATE:
				OS_ENTER_CRITICAL();
				Bt_ActionBeforeHibernate();
     184:	f002 f900 	bl	2388 <Bt_ActionBeforeHibernate>
				HWRITE(IPC_MCU_STATE,IPC_MCU_STATE_STOP);
     188:	4b03      	ldr	r3, [pc, #12]	; (198 <Stack_Size+0x98>)
     18a:	2203      	movs	r2, #3
     18c:	701a      	strb	r2, [r3, #0]
				break;
     18e:	46c0      	nop			; (mov r8, r8)
			case IPC_MCU_STATE_STOP:
				break;
		}
		//hw_delay();
	};
     190:	e7b7      	b.n	102 <Stack_Size+0x2>
     192:	46c0      	nop			; (mov r8, r8)
     194:	10010500 	.word	0x10010500
     198:	10004334 	.word	0x10004334
     19c:	100108b0 	.word	0x100108b0

000001a0 <keypad_keyPress_handle>:
};
#endif


void keypad_keyPress_handle(KEY_INDEX index)
{
     1a0:	b580      	push	{r7, lr}
     1a2:	b082      	sub	sp, #8
     1a4:	af00      	add	r7, sp, #0
     1a6:	0002      	movs	r2, r0
     1a8:	1dfb      	adds	r3, r7, #7
     1aa:	701a      	strb	r2, [r3, #0]
			tws_user2_action();
			break;
		default:
			break;
	}*/
}
     1ac:	46c0      	nop			; (mov r8, r8)
     1ae:	46bd      	mov	sp, r7
     1b0:	b002      	add	sp, #8
     1b2:	bd80      	pop	{r7, pc}

000001b4 <keypad_keyDown_handle>:


void keypad_keyDown_handle(KEY_INDEX index)
{
     1b4:	b580      	push	{r7, lr}
     1b6:	b082      	sub	sp, #8
     1b8:	af00      	add	r7, sp, #0
     1ba:	0002      	movs	r2, r0
     1bc:	1dfb      	adds	r3, r7, #7
     1be:	701a      	strb	r2, [r3, #0]
	switch (index)
     1c0:	1dfb      	adds	r3, r7, #7
     1c2:	781b      	ldrb	r3, [r3, #0]
     1c4:	2b00      	cmp	r3, #0
     1c6:	d002      	beq.n	1ce <keypad_keyDown_handle+0x1a>
     1c8:	2b01      	cmp	r3, #1
     1ca:	d002      	beq.n	1d2 <keypad_keyDown_handle+0x1e>
			break;
		case KEY_1:
			//Bat_EnterChargerIn();
			break;
		default:
			break;
     1cc:	e002      	b.n	1d4 <keypad_keyDown_handle+0x20>
{
	switch (index)
	{
		case KEY_0:
			//Lpm_LockLpm(KEY_LPM_FLAG);
			break;
     1ce:	46c0      	nop			; (mov r8, r8)
     1d0:	e000      	b.n	1d4 <keypad_keyDown_handle+0x20>
		case KEY_1:
			//Bat_EnterChargerIn();
			break;
     1d2:	46c0      	nop			; (mov r8, r8)
		default:
			break;
	}
}
     1d4:	46c0      	nop			; (mov r8, r8)
     1d6:	46bd      	mov	sp, r7
     1d8:	b002      	add	sp, #8
     1da:	bd80      	pop	{r7, pc}

000001dc <keypad_keyUp_handle>:


void keypad_keyUp_handle(KEY_INDEX index)
{
     1dc:	b580      	push	{r7, lr}
     1de:	b082      	sub	sp, #8
     1e0:	af00      	add	r7, sp, #0
     1e2:	0002      	movs	r2, r0
     1e4:	1dfb      	adds	r3, r7, #7
     1e6:	701a      	strb	r2, [r3, #0]
	switch (index)
     1e8:	1dfb      	adds	r3, r7, #7
     1ea:	781b      	ldrb	r3, [r3, #0]
     1ec:	2b00      	cmp	r3, #0
     1ee:	d002      	beq.n	1f6 <keypad_keyUp_handle+0x1a>
     1f0:	2b01      	cmp	r3, #1
     1f2:	d002      	beq.n	1fa <keypad_keyUp_handle+0x1e>
			break;
		case KEY_1:
			//Bat_ExitChargerIn();
			break;
		default:
			break;
     1f4:	e002      	b.n	1fc <keypad_keyUp_handle+0x20>
{
	switch (index)
	{
		case KEY_0:
			//Lpm_unLockLpm(KEY_LPM_FLAG);
			break;
     1f6:	46c0      	nop			; (mov r8, r8)
     1f8:	e000      	b.n	1fc <keypad_keyUp_handle+0x20>
		case KEY_1:
			//Bat_ExitChargerIn();
			break;
     1fa:	46c0      	nop			; (mov r8, r8)
		default:
			break;
	}
}
     1fc:	46c0      	nop			; (mov r8, r8)
     1fe:	46bd      	mov	sp, r7
     200:	b002      	add	sp, #8
     202:	bd80      	pop	{r7, pc}

00000204 <tws_user3_action>:

void tws_user3_action()
{
     204:	b580      	push	{r7, lr}
     206:	af00      	add	r7, sp, #0
	if (Bt_checkBRIsConnected())
     208:	f001 fec8 	bl	1f9c <Bt_checkBRIsConnected>
     20c:	1e03      	subs	r3, r0, #0
     20e:	d009      	beq.n	224 <tws_user3_action+0x20>
	{
		if (HREAD(REG_B_TWS_ROLE) != TWS_SET_SLAVE){
     210:	4b06      	ldr	r3, [pc, #24]	; (22c <tws_user3_action+0x28>)
     212:	781b      	ldrb	r3, [r3, #0]
     214:	b2db      	uxtb	r3, r3
     216:	2b33      	cmp	r3, #51	; 0x33
     218:	d002      	beq.n	220 <tws_user3_action+0x1c>
			Bt_SndCmdRedial();
     21a:	f002 f963 	bl	24e4 <Bt_SndCmdRedial>
		}
		else{
			Bt_SndCmdTwsUser3();
		}
	}		
}
     21e:	e001      	b.n	224 <tws_user3_action+0x20>
	{
		if (HREAD(REG_B_TWS_ROLE) != TWS_SET_SLAVE){
			Bt_SndCmdRedial();
		}
		else{
			Bt_SndCmdTwsUser3();
     220:	f002 f980 	bl	2524 <Bt_SndCmdTwsUser3>
		}
	}		
}
     224:	46c0      	nop			; (mov r8, r8)
     226:	46bd      	mov	sp, r7
     228:	bd80      	pop	{r7, pc}
     22a:	46c0      	nop			; (mov r8, r8)
     22c:	100049d5 	.word	0x100049d5

00000230 <tws_user4_action>:

void tws_user4_action()
{
     230:	b580      	push	{r7, lr}
     232:	af00      	add	r7, sp, #0
	if (HREAD(REG_B_TWS_ROLE) != TWS_SET_SLAVE)
     234:	4b06      	ldr	r3, [pc, #24]	; (250 <tws_user4_action+0x20>)
     236:	781b      	ldrb	r3, [r3, #0]
     238:	b2db      	uxtb	r3, r3
     23a:	2b33      	cmp	r3, #51	; 0x33
     23c:	d002      	beq.n	244 <tws_user4_action+0x14>
	{	
		Bt_SndCmdHangup();
     23e:	f002 f941 	bl	24c4 <Bt_SndCmdHangup>
	}
	else
	{
		Bt_SndCmdTwsUser4();
	}
}
     242:	e001      	b.n	248 <tws_user4_action+0x18>
	{	
		Bt_SndCmdHangup();
	}
	else
	{
		Bt_SndCmdTwsUser4();
     244:	f002 f976 	bl	2534 <Bt_SndCmdTwsUser4>
	}
}
     248:	46c0      	nop			; (mov r8, r8)
     24a:	46bd      	mov	sp, r7
     24c:	bd80      	pop	{r7, pc}
     24e:	46c0      	nop			; (mov r8, r8)
     250:	100049d5 	.word	0x100049d5

00000254 <tws_user2_action>:

void tws_user2_action()
{
     254:	b580      	push	{r7, lr}
     256:	af00      	add	r7, sp, #0
	// hung up call
	 if (*gpHFPCallState >= HFP_OUTGOING)
     258:	4b08      	ldr	r3, [pc, #32]	; (27c <tws_user2_action+0x28>)
     25a:	681b      	ldr	r3, [r3, #0]
     25c:	781b      	ldrb	r3, [r3, #0]
     25e:	2b01      	cmp	r3, #1
     260:	d909      	bls.n	276 <tws_user2_action+0x22>
	{
		if (HREAD(REG_B_TWS_ROLE) != TWS_SET_SLAVE){
     262:	4b07      	ldr	r3, [pc, #28]	; (280 <tws_user2_action+0x2c>)
     264:	781b      	ldrb	r3, [r3, #0]
     266:	b2db      	uxtb	r3, r3
     268:	2b33      	cmp	r3, #51	; 0x33
     26a:	d002      	beq.n	272 <tws_user2_action+0x1e>
			Bt_SndCmdHangup();
     26c:	f002 f92a 	bl	24c4 <Bt_SndCmdHangup>
		}
		else{
			Bt_SndCmdTwsUser2();
		}
	}
}
     270:	e001      	b.n	276 <tws_user2_action+0x22>
	{
		if (HREAD(REG_B_TWS_ROLE) != TWS_SET_SLAVE){
			Bt_SndCmdHangup();
		}
		else{
			Bt_SndCmdTwsUser2();
     272:	f002 f94f 	bl	2514 <Bt_SndCmdTwsUser2>
		}
	}
}
     276:	46c0      	nop			; (mov r8, r8)
     278:	46bd      	mov	sp, r7
     27a:	bd80      	pop	{r7, pc}
     27c:	10010538 	.word	0x10010538
     280:	100049d5 	.word	0x100049d5

00000284 <tws_user1_action>:
void tws_user1_action()
{
     284:	b580      	push	{r7, lr}
     286:	af00      	add	r7, sp, #0
	if (!Bt_checkBRIsConnected())
     288:	f001 fe88 	bl	1f9c <Bt_checkBRIsConnected>
     28c:	1e03      	subs	r3, r0, #0
     28e:	d01a      	beq.n	2c6 <tws_user1_action+0x42>
		return;
		
	if (HREAD(REG_B_TWS_ROLE) != TWS_SET_SLAVE)
     290:	4b0e      	ldr	r3, [pc, #56]	; (2cc <tws_user1_action+0x48>)
     292:	781b      	ldrb	r3, [r3, #0]
     294:	b2db      	uxtb	r3, r3
     296:	2b33      	cmp	r3, #51	; 0x33
     298:	d012      	beq.n	2c0 <tws_user1_action+0x3c>
	{
			
		if (*gpHFPCallState == HFP_NONO)
     29a:	4b0d      	ldr	r3, [pc, #52]	; (2d0 <tws_user1_action+0x4c>)
     29c:	681b      	ldr	r3, [r3, #0]
     29e:	781b      	ldrb	r3, [r3, #0]
     2a0:	2b00      	cmp	r3, #0
     2a2:	d102      	bne.n	2aa <tws_user1_action+0x26>
		{
			Bt_SndCmdPlayPause();
     2a4:	f002 f8f4 	bl	2490 <Bt_SndCmdPlayPause>
     2a8:	e00e      	b.n	2c8 <tws_user1_action+0x44>
		}
		else if (*gpHFPCallState == HFP_INCOMMING)
     2aa:	4b09      	ldr	r3, [pc, #36]	; (2d0 <tws_user1_action+0x4c>)
     2ac:	681b      	ldr	r3, [r3, #0]
     2ae:	781b      	ldrb	r3, [r3, #0]
     2b0:	2b01      	cmp	r3, #1
     2b2:	d102      	bne.n	2ba <tws_user1_action+0x36>
		{
			Bt_SndCmdAcceptCall();
     2b4:	f002 f8fe 	bl	24b4 <Bt_SndCmdAcceptCall>
     2b8:	e006      	b.n	2c8 <tws_user1_action+0x44>
		}
		else
		{
			Bt_SndCmdHangup();
     2ba:	f002 f903 	bl	24c4 <Bt_SndCmdHangup>
     2be:	e003      	b.n	2c8 <tws_user1_action+0x44>
		}
	}
	else{
		Bt_SndCmdTwsUser1();
     2c0:	f002 f920 	bl	2504 <Bt_SndCmdTwsUser1>
     2c4:	e000      	b.n	2c8 <tws_user1_action+0x44>
	}
}
void tws_user1_action()
{
	if (!Bt_checkBRIsConnected())
		return;
     2c6:	46c0      	nop			; (mov r8, r8)
		}
	}
	else{
		Bt_SndCmdTwsUser1();
	}
}
     2c8:	46bd      	mov	sp, r7
     2ca:	bd80      	pop	{r7, pc}
     2cc:	100049d5 	.word	0x100049d5
     2d0:	10010538 	.word	0x10010538

000002d4 <keypad_keytap_handle>:

void keypad_keytap_handle(KEY_INDEX index)
{
     2d4:	b580      	push	{r7, lr}
     2d6:	b082      	sub	sp, #8
     2d8:	af00      	add	r7, sp, #0
     2da:	0002      	movs	r2, r0
     2dc:	1dfb      	adds	r3, r7, #7
     2de:	701a      	strb	r2, [r3, #0]
	tws_key_func_handle(index, TWS_KEY_EVT_TYPE_TAP, false);
     2e0:	1dfb      	adds	r3, r7, #7
     2e2:	781b      	ldrb	r3, [r3, #0]
     2e4:	2200      	movs	r2, #0
     2e6:	2100      	movs	r1, #0
     2e8:	0018      	movs	r0, r3
     2ea:	f000 f85f 	bl	3ac <tws_key_func_handle>
}
     2ee:	46c0      	nop			; (mov r8, r8)
     2f0:	46bd      	mov	sp, r7
     2f2:	b002      	add	sp, #8
     2f4:	bd80      	pop	{r7, pc}
     2f6:	46c0      	nop			; (mov r8, r8)

000002f8 <keypad_key_double_handle>:

void keypad_key_double_handle(KEY_INDEX index)
{
     2f8:	b580      	push	{r7, lr}
     2fa:	b082      	sub	sp, #8
     2fc:	af00      	add	r7, sp, #0
     2fe:	0002      	movs	r2, r0
     300:	1dfb      	adds	r3, r7, #7
     302:	701a      	strb	r2, [r3, #0]
	tws_key_func_handle(index, TWS_KEY_EVT_TYPE_DOUBLE, false);
     304:	1dfb      	adds	r3, r7, #7
     306:	781b      	ldrb	r3, [r3, #0]
     308:	2200      	movs	r2, #0
     30a:	2101      	movs	r1, #1
     30c:	0018      	movs	r0, r3
     30e:	f000 f84d 	bl	3ac <tws_key_func_handle>
}
     312:	46c0      	nop			; (mov r8, r8)
     314:	46bd      	mov	sp, r7
     316:	b002      	add	sp, #8
     318:	bd80      	pop	{r7, pc}
     31a:	46c0      	nop			; (mov r8, r8)

0000031c <keypad_key_triple_handle>:

void keypad_key_triple_handle(KEY_INDEX index)
{
     31c:	b580      	push	{r7, lr}
     31e:	b082      	sub	sp, #8
     320:	af00      	add	r7, sp, #0
     322:	0002      	movs	r2, r0
     324:	1dfb      	adds	r3, r7, #7
     326:	701a      	strb	r2, [r3, #0]
	tws_key_func_handle(index, TWS_KEY_EVT_TYPE_TRIPLE, false);
     328:	1dfb      	adds	r3, r7, #7
     32a:	781b      	ldrb	r3, [r3, #0]
     32c:	2200      	movs	r2, #0
     32e:	2102      	movs	r1, #2
     330:	0018      	movs	r0, r3
     332:	f000 f83b 	bl	3ac <tws_key_func_handle>
}
     336:	46c0      	nop			; (mov r8, r8)
     338:	46bd      	mov	sp, r7
     33a:	b002      	add	sp, #8
     33c:	bd80      	pop	{r7, pc}
     33e:	46c0      	nop			; (mov r8, r8)

00000340 <keypad_key_longPress_release_handle>:


void keypad_key_longPress_release_handle(KEY_INDEX index)
{
     340:	b580      	push	{r7, lr}
     342:	b082      	sub	sp, #8
     344:	af00      	add	r7, sp, #0
     346:	0002      	movs	r2, r0
     348:	1dfb      	adds	r3, r7, #7
     34a:	701a      	strb	r2, [r3, #0]
	if (index == KEY_0)
     34c:	1dfb      	adds	r3, r7, #7
     34e:	781b      	ldrb	r3, [r3, #0]
     350:	2b00      	cmp	r3, #0
     352:	d110      	bne.n	376 <keypad_key_longPress_release_handle+0x36>
	{
		if (gBRState.topState == BR_POWER_ON)
     354:	4b0a      	ldr	r3, [pc, #40]	; (380 <keypad_key_longPress_release_handle+0x40>)
     356:	7e1b      	ldrb	r3, [r3, #24]
     358:	2b04      	cmp	r3, #4
     35a:	d10c      	bne.n	376 <keypad_key_longPress_release_handle+0x36>
		{
			//Bt_CheckReconnectAction();
			if((HREAD(mem_tws_record_state)&0xf0) == 0x50){
     35c:	4b09      	ldr	r3, [pc, #36]	; (384 <keypad_key_longPress_release_handle+0x44>)
     35e:	781b      	ldrb	r3, [r3, #0]
     360:	b2db      	uxtb	r3, r3
     362:	001a      	movs	r2, r3
     364:	23f0      	movs	r3, #240	; 0xf0
     366:	4013      	ands	r3, r2
     368:	2b50      	cmp	r3, #80	; 0x50
     36a:	d102      	bne.n	372 <keypad_key_longPress_release_handle+0x32>
				Bt_SndCmdStartReconTws();
     36c:	f002 f964 	bl	2638 <Bt_SndCmdStartReconTws>
			else{
				Bt_CheckReconnectAction();
			}
		}
	}
}
     370:	e001      	b.n	376 <keypad_key_longPress_release_handle+0x36>
			//Bt_CheckReconnectAction();
			if((HREAD(mem_tws_record_state)&0xf0) == 0x50){
				Bt_SndCmdStartReconTws();
			}
			else{
				Bt_CheckReconnectAction();
     372:	f001 ffc1 	bl	22f8 <Bt_CheckReconnectAction>
			}
		}
	}
}
     376:	46c0      	nop			; (mov r8, r8)
     378:	46bd      	mov	sp, r7
     37a:	b002      	add	sp, #8
     37c:	bd80      	pop	{r7, pc}
     37e:	46c0      	nop			; (mov r8, r8)
     380:	100108b0 	.word	0x100108b0
     384:	100049b2 	.word	0x100049b2

00000388 <keypad_key_longPress_handle>:

void keypad_key_longPress_handle(KEY_INDEX index)
{
     388:	b580      	push	{r7, lr}
     38a:	b082      	sub	sp, #8
     38c:	af00      	add	r7, sp, #0
     38e:	0002      	movs	r2, r0
     390:	1dfb      	adds	r3, r7, #7
     392:	701a      	strb	r2, [r3, #0]
	tws_key_func_handle(index, TWS_KEY_EVT_TYPE_LONG, false);
     394:	1dfb      	adds	r3, r7, #7
     396:	781b      	ldrb	r3, [r3, #0]
     398:	2200      	movs	r2, #0
     39a:	2103      	movs	r1, #3
     39c:	0018      	movs	r0, r3
     39e:	f000 f805 	bl	3ac <tws_key_func_handle>
}
     3a2:	46c0      	nop			; (mov r8, r8)
     3a4:	46bd      	mov	sp, r7
     3a6:	b002      	add	sp, #8
     3a8:	bd80      	pop	{r7, pc}
     3aa:	46c0      	nop			; (mov r8, r8)

000003ac <tws_key_func_handle>:


void tws_key_func_handle(KEY_INDEX index, TWS_KEY_EVT_TYPE keyEvt, bool isExpireByRemote)
{
     3ac:	b590      	push	{r4, r7, lr}
     3ae:	b085      	sub	sp, #20
     3b0:	af00      	add	r7, sp, #0
     3b2:	0004      	movs	r4, r0
     3b4:	0008      	movs	r0, r1
     3b6:	0011      	movs	r1, r2
     3b8:	1dfb      	adds	r3, r7, #7
     3ba:	1c22      	adds	r2, r4, #0
     3bc:	701a      	strb	r2, [r3, #0]
     3be:	1dbb      	adds	r3, r7, #6
     3c0:	1c02      	adds	r2, r0, #0
     3c2:	701a      	strb	r2, [r3, #0]
     3c4:	1d7b      	adds	r3, r7, #5
     3c6:	1c0a      	adds	r2, r1, #0
     3c8:	701a      	strb	r2, [r3, #0]
	//Other func KEY_SUPPORT_FUNC
	KEY_SUPPORT_FUNC keyFunc = Bt_SearchKeyFunc(index, keyEvt
     3ca:	230e      	movs	r3, #14
     3cc:	18fc      	adds	r4, r7, r3
     3ce:	1d7b      	adds	r3, r7, #5
     3d0:	781a      	ldrb	r2, [r3, #0]
     3d2:	1dbb      	adds	r3, r7, #6
     3d4:	7819      	ldrb	r1, [r3, #0]
     3d6:	1dfb      	adds	r3, r7, #7
     3d8:	781b      	ldrb	r3, [r3, #0]
     3da:	0018      	movs	r0, r3
     3dc:	f000 f904 	bl	5e8 <Bt_SearchKeyFunc>
     3e0:	0003      	movs	r3, r0
     3e2:	7023      	strb	r3, [r4, #0]
		, isExpireByRemote);
	bool isNeedSendActionToRemote = false;
     3e4:	230f      	movs	r3, #15
     3e6:	18fb      	adds	r3, r7, r3
     3e8:	2200      	movs	r2, #0
     3ea:	701a      	strb	r2, [r3, #0]
	
	DEBUG_LOG_2(LOG_LEVEL_CORE, "TWS" ,"tws_key_func_handle: 0x%04X", LOG_POINT_C001, index, keyEvt);
     3ec:	46c0      	nop			; (mov r8, r8)
	DEBUG_LOG_2(LOG_LEVEL_CORE, "TWS" ,"tws_key_func_handle: 0x%04X", LOG_POINT_C002, gBRState.twsState, isExpireByRemote);
     3ee:	46c0      	nop			; (mov r8, r8)
	
	
	//Judge is tws slave or not
	if (gBRState.twsState == BR_TWS_SLAVE_CONNECTED)
     3f0:	4b35      	ldr	r3, [pc, #212]	; (4c8 <tws_key_func_handle+0x11c>)
     3f2:	7edb      	ldrb	r3, [r3, #27]
     3f4:	2b16      	cmp	r3, #22
     3f6:	d127      	bne.n	448 <tws_key_func_handle+0x9c>
	{
		if(keyFunc == KEY_FUNC_POWER_ON_OFF)
     3f8:	230e      	movs	r3, #14
     3fa:	18fb      	adds	r3, r7, r3
     3fc:	781b      	ldrb	r3, [r3, #0]
     3fe:	2b09      	cmp	r3, #9
     400:	d106      	bne.n	410 <tws_key_func_handle+0x64>
		{
			Bt_ProcessKeyFunc(keyFunc);
     402:	230e      	movs	r3, #14
     404:	18fb      	adds	r3, r7, r3
     406:	781b      	ldrb	r3, [r3, #0]
     408:	0018      	movs	r0, r3
     40a:	f003 f821 	bl	3450 <Bt_ProcessKeyFunc>
			return;
     40e:	e058      	b.n	4c2 <tws_key_func_handle+0x116>
		}
		else if(keyFunc == KEY_FUNC_MUSIC_VOL_UP
     410:	230e      	movs	r3, #14
     412:	18fb      	adds	r3, r7, r3
     414:	781b      	ldrb	r3, [r3, #0]
     416:	2b04      	cmp	r3, #4
     418:	d004      	beq.n	424 <tws_key_func_handle+0x78>
			||keyFunc == KEY_FUNC_MUSIC_VOL_DOWN)
     41a:	230e      	movs	r3, #14
     41c:	18fb      	adds	r3, r7, r3
     41e:	781b      	ldrb	r3, [r3, #0]
     420:	2b05      	cmp	r3, #5
     422:	d105      	bne.n	430 <tws_key_func_handle+0x84>
		{
			Bt_ProcessKeyFunc(keyFunc);
     424:	230e      	movs	r3, #14
     426:	18fb      	adds	r3, r7, r3
     428:	781b      	ldrb	r3, [r3, #0]
     42a:	0018      	movs	r0, r3
     42c:	f003 f810 	bl	3450 <Bt_ProcessKeyFunc>
		}
		if(!isExpireByRemote)
     430:	1d7b      	adds	r3, r7, #5
     432:	781b      	ldrb	r3, [r3, #0]
     434:	2201      	movs	r2, #1
     436:	4053      	eors	r3, r2
     438:	b2db      	uxtb	r3, r3
     43a:	2b00      	cmp	r3, #0
     43c:	d023      	beq.n	486 <tws_key_func_handle+0xda>
		{
			isNeedSendActionToRemote = true;
     43e:	230f      	movs	r3, #15
     440:	18fb      	adds	r3, r7, r3
     442:	2201      	movs	r2, #1
     444:	701a      	strb	r2, [r3, #0]
     446:	e01e      	b.n	486 <tws_key_func_handle+0xda>
		}
	}
	else
	{
		Bt_ProcessKeyFunc(keyFunc);
     448:	230e      	movs	r3, #14
     44a:	18fb      	adds	r3, r7, r3
     44c:	781b      	ldrb	r3, [r3, #0]
     44e:	0018      	movs	r0, r3
     450:	f002 fffe 	bl	3450 <Bt_ProcessKeyFunc>

		if(!isExpireByRemote
     454:	1d7b      	adds	r3, r7, #5
     456:	781b      	ldrb	r3, [r3, #0]
     458:	2201      	movs	r2, #1
     45a:	4053      	eors	r3, r2
     45c:	b2db      	uxtb	r3, r3
     45e:	2b00      	cmp	r3, #0
     460:	d011      	beq.n	486 <tws_key_func_handle+0xda>
			&& (gBRState.twsState == BR_TWS_MASTER_CONNECTED))
     462:	4b19      	ldr	r3, [pc, #100]	; (4c8 <tws_key_func_handle+0x11c>)
     464:	7edb      	ldrb	r3, [r3, #27]
     466:	2b17      	cmp	r3, #23
     468:	d10d      	bne.n	486 <tws_key_func_handle+0xda>
		{
			if(keyFunc == KEY_FUNC_MUSIC_VOL_UP
     46a:	230e      	movs	r3, #14
     46c:	18fb      	adds	r3, r7, r3
     46e:	781b      	ldrb	r3, [r3, #0]
     470:	2b04      	cmp	r3, #4
     472:	d004      	beq.n	47e <tws_key_func_handle+0xd2>
				||keyFunc == KEY_FUNC_MUSIC_VOL_DOWN)
     474:	230e      	movs	r3, #14
     476:	18fb      	adds	r3, r7, r3
     478:	781b      	ldrb	r3, [r3, #0]
     47a:	2b05      	cmp	r3, #5
     47c:	d103      	bne.n	486 <tws_key_func_handle+0xda>
			{
				isNeedSendActionToRemote = true;
     47e:	230f      	movs	r3, #15
     480:	18fb      	adds	r3, r7, r3
     482:	2201      	movs	r2, #1
     484:	701a      	strb	r2, [r3, #0]
			}
		}
	}

	if(isNeedSendActionToRemote)
     486:	230f      	movs	r3, #15
     488:	18fb      	adds	r3, r7, r3
     48a:	781b      	ldrb	r3, [r3, #0]
     48c:	2b00      	cmp	r3, #0
     48e:	d018      	beq.n	4c2 <tws_key_func_handle+0x116>
	{
		switch(keyEvt)
     490:	1dbb      	adds	r3, r7, #6
     492:	781b      	ldrb	r3, [r3, #0]
     494:	2b01      	cmp	r3, #1
     496:	d00b      	beq.n	4b0 <tws_key_func_handle+0x104>
     498:	dc02      	bgt.n	4a0 <tws_key_func_handle+0xf4>
     49a:	2b00      	cmp	r3, #0
     49c:	d005      	beq.n	4aa <tws_key_func_handle+0xfe>
     49e:	e010      	b.n	4c2 <tws_key_func_handle+0x116>
     4a0:	2b02      	cmp	r3, #2
     4a2:	d008      	beq.n	4b6 <tws_key_func_handle+0x10a>
     4a4:	2b03      	cmp	r3, #3
     4a6:	d009      	beq.n	4bc <tws_key_func_handle+0x110>
     4a8:	e00b      	b.n	4c2 <tws_key_func_handle+0x116>
		{
			case TWS_KEY_EVT_TYPE_TAP:
				Bt_SndCmdTwsUser1();
     4aa:	f002 f82b 	bl	2504 <Bt_SndCmdTwsUser1>
				break;
     4ae:	e008      	b.n	4c2 <tws_key_func_handle+0x116>
			case TWS_KEY_EVT_TYPE_DOUBLE:
				Bt_SndCmdTwsUser2();
     4b0:	f002 f830 	bl	2514 <Bt_SndCmdTwsUser2>
				break;
     4b4:	e005      	b.n	4c2 <tws_key_func_handle+0x116>
			case TWS_KEY_EVT_TYPE_TRIPLE:
				Bt_SndCmdTwsUser3();
     4b6:	f002 f835 	bl	2524 <Bt_SndCmdTwsUser3>
				break;
     4ba:	e002      	b.n	4c2 <tws_key_func_handle+0x116>
			case TWS_KEY_EVT_TYPE_LONG:
				Bt_SndCmdTwsUser4();
     4bc:	f002 f83a 	bl	2534 <Bt_SndCmdTwsUser4>
				break;
     4c0:	46c0      	nop			; (mov r8, r8)
		}

	}
}
     4c2:	46bd      	mov	sp, r7
     4c4:	b005      	add	sp, #20
     4c6:	bd90      	pop	{r4, r7, pc}
     4c8:	100108b0 	.word	0x100108b0

000004cc <Bt_SearchKeyFuncByKeyEvt>:


KEY_SUPPORT_FUNC Bt_SearchKeyFuncByKeyEvt(HEADSET_KEY_FUNCTION_MAP funcSubMap, TWS_KEY_EVT_TYPE keyEvt)
{
     4cc:	b084      	sub	sp, #16
     4ce:	b590      	push	{r4, r7, lr}
     4d0:	b083      	sub	sp, #12
     4d2:	af00      	add	r7, sp, #0
     4d4:	2418      	movs	r4, #24
     4d6:	193c      	adds	r4, r7, r4
     4d8:	6020      	str	r0, [r4, #0]
     4da:	6061      	str	r1, [r4, #4]
     4dc:	60a2      	str	r2, [r4, #8]
     4de:	60e3      	str	r3, [r4, #12]
	KEY_FUNCTION_REMAP keyRemap;
	KEY_SUPPORT_FUNC keyFunc = KEY_FUNC_NONE;
     4e0:	1dfb      	adds	r3, r7, #7
     4e2:	2200      	movs	r2, #0
     4e4:	701a      	strb	r2, [r3, #0]
	switch(keyEvt)
     4e6:	2334      	movs	r3, #52	; 0x34
     4e8:	18fb      	adds	r3, r7, r3
     4ea:	781b      	ldrb	r3, [r3, #0]
     4ec:	2b01      	cmp	r3, #1
     4ee:	d012      	beq.n	516 <Bt_SearchKeyFuncByKeyEvt+0x4a>
     4f0:	dc02      	bgt.n	4f8 <Bt_SearchKeyFuncByKeyEvt+0x2c>
     4f2:	2b00      	cmp	r3, #0
     4f4:	d005      	beq.n	502 <Bt_SearchKeyFuncByKeyEvt+0x36>
     4f6:	e02f      	b.n	558 <Bt_SearchKeyFuncByKeyEvt+0x8c>
     4f8:	2b02      	cmp	r3, #2
     4fa:	d017      	beq.n	52c <Bt_SearchKeyFuncByKeyEvt+0x60>
     4fc:	2b03      	cmp	r3, #3
     4fe:	d020      	beq.n	542 <Bt_SearchKeyFuncByKeyEvt+0x76>
     500:	e02a      	b.n	558 <Bt_SearchKeyFuncByKeyEvt+0x8c>
	{
		case TWS_KEY_EVT_TYPE_TAP:
			keyRemap = funcSubMap.singleTap;
     502:	003b      	movs	r3, r7
     504:	2218      	movs	r2, #24
     506:	18ba      	adds	r2, r7, r2
     508:	6811      	ldr	r1, [r2, #0]
     50a:	6019      	str	r1, [r3, #0]
     50c:	8891      	ldrh	r1, [r2, #4]
     50e:	8099      	strh	r1, [r3, #4]
     510:	7992      	ldrb	r2, [r2, #6]
     512:	719a      	strb	r2, [r3, #6]
			break;
     514:	e020      	b.n	558 <Bt_SearchKeyFuncByKeyEvt+0x8c>
		case TWS_KEY_EVT_TYPE_DOUBLE:
			keyRemap = funcSubMap.doublePress;
     516:	0039      	movs	r1, r7
     518:	2318      	movs	r3, #24
     51a:	18fa      	adds	r2, r7, r3
     51c:	2307      	movs	r3, #7
     51e:	0008      	movs	r0, r1
     520:	18d3      	adds	r3, r2, r3
     522:	2207      	movs	r2, #7
     524:	0019      	movs	r1, r3
     526:	f00a fedd 	bl	b2e4 <memcpy>
			break;
     52a:	e015      	b.n	558 <Bt_SearchKeyFuncByKeyEvt+0x8c>
		case TWS_KEY_EVT_TYPE_TRIPLE:
			keyRemap = funcSubMap.tripPress;
     52c:	0039      	movs	r1, r7
     52e:	2318      	movs	r3, #24
     530:	18fa      	adds	r2, r7, r3
     532:	230e      	movs	r3, #14
     534:	0008      	movs	r0, r1
     536:	18d3      	adds	r3, r2, r3
     538:	2207      	movs	r2, #7
     53a:	0019      	movs	r1, r3
     53c:	f00a fed2 	bl	b2e4 <memcpy>
			break;
     540:	e00a      	b.n	558 <Bt_SearchKeyFuncByKeyEvt+0x8c>
		case TWS_KEY_EVT_TYPE_LONG:
			keyRemap = funcSubMap.longPress;
     542:	0039      	movs	r1, r7
     544:	2318      	movs	r3, #24
     546:	18fa      	adds	r2, r7, r3
     548:	2315      	movs	r3, #21
     54a:	0008      	movs	r0, r1
     54c:	18d3      	adds	r3, r2, r3
     54e:	2207      	movs	r2, #7
     550:	0019      	movs	r1, r3
     552:	f00a fec7 	bl	b2e4 <memcpy>
			break;
     556:	46c0      	nop			; (mov r8, r8)
	}
	if(!Bt_checkBRIsConnected())
     558:	f001 fd20 	bl	1f9c <Bt_checkBRIsConnected>
     55c:	1e03      	subs	r3, r0, #0
     55e:	d10d      	bne.n	57c <Bt_SearchKeyFuncByKeyEvt+0xb0>
	{
 		if(!Bt_checkBRIsInDiscoverable())//KEY_SUPPORT_FUNC noConnectPage;
     560:	f001 fd2e 	bl	1fc0 <Bt_checkBRIsInDiscoverable>
     564:	1e03      	subs	r3, r0, #0
     566:	d104      	bne.n	572 <Bt_SearchKeyFuncByKeyEvt+0xa6>
 		{
			keyFunc = keyRemap.noConnectPage;
     568:	1dfb      	adds	r3, r7, #7
     56a:	003a      	movs	r2, r7
     56c:	7812      	ldrb	r2, [r2, #0]
     56e:	701a      	strb	r2, [r3, #0]
     570:	e02f      	b.n	5d2 <Bt_SearchKeyFuncByKeyEvt+0x106>
 		}
  		else // KEY_SUPPORT_FUNC noConnectDiscovery;
 		{
			keyFunc = keyRemap.noConnectDiscovery;
     572:	1dfb      	adds	r3, r7, #7
     574:	003a      	movs	r2, r7
     576:	7852      	ldrb	r2, [r2, #1]
     578:	701a      	strb	r2, [r3, #0]
     57a:	e02a      	b.n	5d2 <Bt_SearchKeyFuncByKeyEvt+0x106>
 		}
	}
	else
	{
		if(*gpHFPCallState != HFP_NONO)
     57c:	4b19      	ldr	r3, [pc, #100]	; (5e4 <Bt_SearchKeyFuncByKeyEvt+0x118>)
     57e:	681b      	ldr	r3, [r3, #0]
     580:	781b      	ldrb	r3, [r3, #0]
     582:	2b00      	cmp	r3, #0
     584:	d018      	beq.n	5b8 <Bt_SearchKeyFuncByKeyEvt+0xec>
		{
			if(*gpHFPCallState == HFP_INCOMMING)
     586:	4b17      	ldr	r3, [pc, #92]	; (5e4 <Bt_SearchKeyFuncByKeyEvt+0x118>)
     588:	681b      	ldr	r3, [r3, #0]
     58a:	781b      	ldrb	r3, [r3, #0]
     58c:	2b01      	cmp	r3, #1
     58e:	d104      	bne.n	59a <Bt_SearchKeyFuncByKeyEvt+0xce>
			{
				keyFunc = keyRemap.connectedHfpIncoming;
     590:	1dfb      	adds	r3, r7, #7
     592:	003a      	movs	r2, r7
     594:	7912      	ldrb	r2, [r2, #4]
     596:	701a      	strb	r2, [r3, #0]
     598:	e01b      	b.n	5d2 <Bt_SearchKeyFuncByKeyEvt+0x106>
			}
			else if(*gpHFPCallState == HFP_OUTGOING)
     59a:	4b12      	ldr	r3, [pc, #72]	; (5e4 <Bt_SearchKeyFuncByKeyEvt+0x118>)
     59c:	681b      	ldr	r3, [r3, #0]
     59e:	781b      	ldrb	r3, [r3, #0]
     5a0:	2b02      	cmp	r3, #2
     5a2:	d104      	bne.n	5ae <Bt_SearchKeyFuncByKeyEvt+0xe2>
			{
				keyFunc = keyRemap.connectedHfpOutgoing;
     5a4:	1dfb      	adds	r3, r7, #7
     5a6:	003a      	movs	r2, r7
     5a8:	7952      	ldrb	r2, [r2, #5]
     5aa:	701a      	strb	r2, [r3, #0]
     5ac:	e011      	b.n	5d2 <Bt_SearchKeyFuncByKeyEvt+0x106>
			}
			else// if(*gpHFPCallState == HFP_CALLACTIVE)
			{
				keyFunc = keyRemap.connectedHfpCalling;
     5ae:	1dfb      	adds	r3, r7, #7
     5b0:	003a      	movs	r2, r7
     5b2:	7992      	ldrb	r2, [r2, #6]
     5b4:	701a      	strb	r2, [r3, #0]
     5b6:	e00c      	b.n	5d2 <Bt_SearchKeyFuncByKeyEvt+0x106>
			}
		}
		else
		{
			//
			if(Bt_A2dpCheckStart())
     5b8:	f002 ff30 	bl	341c <Bt_A2dpCheckStart>
     5bc:	1e03      	subs	r3, r0, #0
     5be:	d004      	beq.n	5ca <Bt_SearchKeyFuncByKeyEvt+0xfe>
			{
				keyFunc = keyRemap.connectedMusic;
     5c0:	1dfb      	adds	r3, r7, #7
     5c2:	003a      	movs	r2, r7
     5c4:	78d2      	ldrb	r2, [r2, #3]
     5c6:	701a      	strb	r2, [r3, #0]
     5c8:	e003      	b.n	5d2 <Bt_SearchKeyFuncByKeyEvt+0x106>
			}
			else
			{
				keyFunc = keyRemap.connectedIdle;
     5ca:	1dfb      	adds	r3, r7, #7
     5cc:	003a      	movs	r2, r7
     5ce:	7892      	ldrb	r2, [r2, #2]
     5d0:	701a      	strb	r2, [r3, #0]
			}
		}
		
	}

	return keyFunc;
     5d2:	1dfb      	adds	r3, r7, #7
     5d4:	781b      	ldrb	r3, [r3, #0]
}
     5d6:	0018      	movs	r0, r3
     5d8:	46bd      	mov	sp, r7
     5da:	b003      	add	sp, #12
     5dc:	bc90      	pop	{r4, r7}
     5de:	bc08      	pop	{r3}
     5e0:	b004      	add	sp, #16
     5e2:	4718      	bx	r3
     5e4:	10010538 	.word	0x10010538

000005e8 <Bt_SearchKeyFunc>:
KEY_SUPPORT_FUNC Bt_SearchKeyFunc(KEY_INDEX index, TWS_KEY_EVT_TYPE keyEvt, bool isExpireByRemote)
{
     5e8:	b5f0      	push	{r4, r5, r6, r7, lr}
     5ea:	b09f      	sub	sp, #124	; 0x7c
     5ec:	af04      	add	r7, sp, #16
     5ee:	0004      	movs	r4, r0
     5f0:	0008      	movs	r0, r1
     5f2:	0011      	movs	r1, r2
     5f4:	230f      	movs	r3, #15
     5f6:	18fb      	adds	r3, r7, r3
     5f8:	1c22      	adds	r2, r4, #0
     5fa:	701a      	strb	r2, [r3, #0]
     5fc:	230e      	movs	r3, #14
     5fe:	18fb      	adds	r3, r7, r3
     600:	1c02      	adds	r2, r0, #0
     602:	701a      	strb	r2, [r3, #0]
     604:	230d      	movs	r3, #13
     606:	18fb      	adds	r3, r7, r3
     608:	1c0a      	adds	r2, r1, #0
     60a:	701a      	strb	r2, [r3, #0]
	KEY_SUPPORT_FUNC func = KEY_FUNC_NONE;
     60c:	235f      	movs	r3, #95	; 0x5f
     60e:	2208      	movs	r2, #8
     610:	4694      	mov	ip, r2
     612:	44bc      	add	ip, r7
     614:	4463      	add	r3, ip
     616:	2200      	movs	r2, #0
     618:	701a      	strb	r2, [r3, #0]
	TWS_KEY_FUNCTION_MAP funcMap;
	uint8_t arraySize = sizeof(gTwsKeyFuncArray);
     61a:	235d      	movs	r3, #93	; 0x5d
     61c:	2208      	movs	r2, #8
     61e:	4694      	mov	ip, r2
     620:	44bc      	add	ip, r7
     622:	4463      	add	r3, ip
     624:	2255      	movs	r2, #85	; 0x55
     626:	701a      	strb	r2, [r3, #0]
	uint8_t i;
	for(i = 0; i < arraySize; i ++)
     628:	235e      	movs	r3, #94	; 0x5e
     62a:	2208      	movs	r2, #8
     62c:	4694      	mov	ip, r2
     62e:	44bc      	add	ip, r7
     630:	4463      	add	r3, ip
     632:	2200      	movs	r2, #0
     634:	701a      	strb	r2, [r3, #0]
     636:	e01e      	b.n	676 <Bt_SearchKeyFunc+0x8e>
	{
		if(gTwsKeyFuncArray[i].index == index)
     638:	235e      	movs	r3, #94	; 0x5e
     63a:	2208      	movs	r2, #8
     63c:	4694      	mov	ip, r2
     63e:	44bc      	add	ip, r7
     640:	4463      	add	r3, ip
     642:	781a      	ldrb	r2, [r3, #0]
     644:	49da      	ldr	r1, [pc, #872]	; (9b0 <Bt_SearchKeyFunc+0x3c8>)
     646:	0013      	movs	r3, r2
     648:	009b      	lsls	r3, r3, #2
     64a:	189b      	adds	r3, r3, r2
     64c:	011a      	lsls	r2, r3, #4
     64e:	189b      	adds	r3, r3, r2
     650:	5c5b      	ldrb	r3, [r3, r1]
     652:	220f      	movs	r2, #15
     654:	18ba      	adds	r2, r7, r2
     656:	7812      	ldrb	r2, [r2, #0]
     658:	429a      	cmp	r2, r3
     65a:	d01a      	beq.n	692 <Bt_SearchKeyFunc+0xaa>
{
	KEY_SUPPORT_FUNC func = KEY_FUNC_NONE;
	TWS_KEY_FUNCTION_MAP funcMap;
	uint8_t arraySize = sizeof(gTwsKeyFuncArray);
	uint8_t i;
	for(i = 0; i < arraySize; i ++)
     65c:	235e      	movs	r3, #94	; 0x5e
     65e:	2208      	movs	r2, #8
     660:	4694      	mov	ip, r2
     662:	44bc      	add	ip, r7
     664:	4463      	add	r3, ip
     666:	781a      	ldrb	r2, [r3, #0]
     668:	235e      	movs	r3, #94	; 0x5e
     66a:	2108      	movs	r1, #8
     66c:	468c      	mov	ip, r1
     66e:	44bc      	add	ip, r7
     670:	4463      	add	r3, ip
     672:	3201      	adds	r2, #1
     674:	701a      	strb	r2, [r3, #0]
     676:	235e      	movs	r3, #94	; 0x5e
     678:	2208      	movs	r2, #8
     67a:	18ba      	adds	r2, r7, r2
     67c:	18d2      	adds	r2, r2, r3
     67e:	235d      	movs	r3, #93	; 0x5d
     680:	2108      	movs	r1, #8
     682:	468c      	mov	ip, r1
     684:	44bc      	add	ip, r7
     686:	4463      	add	r3, ip
     688:	7812      	ldrb	r2, [r2, #0]
     68a:	781b      	ldrb	r3, [r3, #0]
     68c:	429a      	cmp	r2, r3
     68e:	d3d3      	bcc.n	638 <Bt_SearchKeyFunc+0x50>
     690:	e000      	b.n	694 <Bt_SearchKeyFunc+0xac>
	{
		if(gTwsKeyFuncArray[i].index == index)
		{
			break;
     692:	46c0      	nop			; (mov r8, r8)
		}
	}
	// check find or not
	if(i >= arraySize)
     694:	235e      	movs	r3, #94	; 0x5e
     696:	2208      	movs	r2, #8
     698:	18ba      	adds	r2, r7, r2
     69a:	18d2      	adds	r2, r2, r3
     69c:	235d      	movs	r3, #93	; 0x5d
     69e:	2108      	movs	r1, #8
     6a0:	468c      	mov	ip, r1
     6a2:	44bc      	add	ip, r7
     6a4:	4463      	add	r3, ip
     6a6:	7812      	ldrb	r2, [r2, #0]
     6a8:	781b      	ldrb	r3, [r3, #0]
     6aa:	429a      	cmp	r2, r3
     6ac:	d306      	bcc.n	6bc <Bt_SearchKeyFunc+0xd4>
	{
		return func;
     6ae:	235f      	movs	r3, #95	; 0x5f
     6b0:	2208      	movs	r2, #8
     6b2:	4694      	mov	ip, r2
     6b4:	44bc      	add	ip, r7
     6b6:	4463      	add	r3, ip
     6b8:	781b      	ldrb	r3, [r3, #0]
     6ba:	e1d5      	b.n	a68 <Bt_SearchKeyFunc+0x480>
	}
	funcMap = gTwsKeyFuncArray[i];
     6bc:	235e      	movs	r3, #94	; 0x5e
     6be:	2208      	movs	r2, #8
     6c0:	4694      	mov	ip, r2
     6c2:	44bc      	add	ip, r7
     6c4:	4463      	add	r3, ip
     6c6:	781a      	ldrb	r2, [r3, #0]
     6c8:	2308      	movs	r3, #8
     6ca:	2108      	movs	r1, #8
     6cc:	1879      	adds	r1, r7, r1
     6ce:	18c8      	adds	r0, r1, r3
     6d0:	49b7      	ldr	r1, [pc, #732]	; (9b0 <Bt_SearchKeyFunc+0x3c8>)
     6d2:	0013      	movs	r3, r2
     6d4:	009b      	lsls	r3, r3, #2
     6d6:	189b      	adds	r3, r3, r2
     6d8:	011a      	lsls	r2, r3, #4
     6da:	189b      	adds	r3, r3, r2
     6dc:	18cb      	adds	r3, r1, r3
     6de:	2255      	movs	r2, #85	; 0x55
     6e0:	0019      	movs	r1, r3
     6e2:	f00a fdff 	bl	b2e4 <memcpy>
	DEBUG_LOG_2(LOG_LEVEL_CORE, "TWS" ,"Bt_SearchKeyFunc: 0x%04X", LOG_POINT_C003, index, keyEvt);
     6e6:	46c0      	nop			; (mov r8, r8)
	DEBUG_LOG_2(LOG_LEVEL_CORE, "TWS" ,"Bt_SearchKeyFunc: 0x%04X", LOG_POINT_C004, gBRState.twsState, isExpireByRemote);
     6e8:	46c0      	nop			; (mov r8, r8)
	
	//Judge is tws slave
	if (HSP_R == HREAD(mem_hsp_role))
     6ea:	4bb2      	ldr	r3, [pc, #712]	; (9b4 <Bt_SearchKeyFunc+0x3cc>)
     6ec:	781b      	ldrb	r3, [r3, #0]
     6ee:	b2db      	uxtb	r3, r3
     6f0:	2b02      	cmp	r3, #2
     6f2:	d000      	beq.n	6f6 <Bt_SearchKeyFunc+0x10e>
     6f4:	e0aa      	b.n	84c <Bt_SearchKeyFunc+0x264>
	{
		if(isExpireByRemote)
     6f6:	230d      	movs	r3, #13
     6f8:	18fb      	adds	r3, r7, r3
     6fa:	781b      	ldrb	r3, [r3, #0]
     6fc:	2b00      	cmp	r3, #0
     6fe:	d052      	beq.n	7a6 <Bt_SearchKeyFunc+0x1be>
		{
			func = Bt_SearchKeyFuncByKeyEvt(funcMap.doubleLeftHeadset, keyEvt);
     700:	235f      	movs	r3, #95	; 0x5f
     702:	2208      	movs	r2, #8
     704:	18ba      	adds	r2, r7, r2
     706:	18d4      	adds	r4, r2, r3
     708:	2308      	movs	r3, #8
     70a:	2208      	movs	r2, #8
     70c:	4694      	mov	ip, r2
     70e:	44bc      	add	ip, r7
     710:	4463      	add	r3, ip
     712:	221d      	movs	r2, #29
     714:	210e      	movs	r1, #14
     716:	1879      	adds	r1, r7, r1
     718:	7809      	ldrb	r1, [r1, #0]
     71a:	9103      	str	r1, [sp, #12]
     71c:	5c99      	ldrb	r1, [r3, r2]
     71e:	1898      	adds	r0, r3, r2
     720:	7840      	ldrb	r0, [r0, #1]
     722:	0200      	lsls	r0, r0, #8
     724:	4301      	orrs	r1, r0
     726:	1898      	adds	r0, r3, r2
     728:	7880      	ldrb	r0, [r0, #2]
     72a:	0400      	lsls	r0, r0, #16
     72c:	4301      	orrs	r1, r0
     72e:	1898      	adds	r0, r3, r2
     730:	78c0      	ldrb	r0, [r0, #3]
     732:	0600      	lsls	r0, r0, #24
     734:	4301      	orrs	r1, r0
     736:	60b9      	str	r1, [r7, #8]
     738:	1899      	adds	r1, r3, r2
     73a:	7908      	ldrb	r0, [r1, #4]
     73c:	794d      	ldrb	r5, [r1, #5]
     73e:	022d      	lsls	r5, r5, #8
     740:	4328      	orrs	r0, r5
     742:	798d      	ldrb	r5, [r1, #6]
     744:	042d      	lsls	r5, r5, #16
     746:	4328      	orrs	r0, r5
     748:	79c9      	ldrb	r1, [r1, #7]
     74a:	0609      	lsls	r1, r1, #24
     74c:	4301      	orrs	r1, r0
     74e:	6079      	str	r1, [r7, #4]
     750:	1899      	adds	r1, r3, r2
     752:	7a08      	ldrb	r0, [r1, #8]
     754:	7a4d      	ldrb	r5, [r1, #9]
     756:	022d      	lsls	r5, r5, #8
     758:	4328      	orrs	r0, r5
     75a:	7a8d      	ldrb	r5, [r1, #10]
     75c:	042d      	lsls	r5, r5, #16
     75e:	4328      	orrs	r0, r5
     760:	7ac9      	ldrb	r1, [r1, #11]
     762:	0609      	lsls	r1, r1, #24
     764:	4301      	orrs	r1, r0
     766:	000e      	movs	r6, r1
     768:	1899      	adds	r1, r3, r2
     76a:	7b08      	ldrb	r0, [r1, #12]
     76c:	7b4d      	ldrb	r5, [r1, #13]
     76e:	022d      	lsls	r5, r5, #8
     770:	4328      	orrs	r0, r5
     772:	7b8d      	ldrb	r5, [r1, #14]
     774:	042d      	lsls	r5, r5, #16
     776:	4328      	orrs	r0, r5
     778:	7bc9      	ldrb	r1, [r1, #15]
     77a:	0609      	lsls	r1, r1, #24
     77c:	4301      	orrs	r1, r0
     77e:	000d      	movs	r5, r1
     780:	2110      	movs	r1, #16
     782:	189b      	adds	r3, r3, r2
     784:	185b      	adds	r3, r3, r1
     786:	466a      	mov	r2, sp
     788:	0010      	movs	r0, r2
     78a:	0019      	movs	r1, r3
     78c:	230c      	movs	r3, #12
     78e:	001a      	movs	r2, r3
     790:	f00a fda8 	bl	b2e4 <memcpy>
     794:	68b8      	ldr	r0, [r7, #8]
     796:	6879      	ldr	r1, [r7, #4]
     798:	0032      	movs	r2, r6
     79a:	002b      	movs	r3, r5
     79c:	f7ff fe96 	bl	4cc <Bt_SearchKeyFuncByKeyEvt>
     7a0:	0003      	movs	r3, r0
     7a2:	7023      	strb	r3, [r4, #0]
     7a4:	e15a      	b.n	a5c <Bt_SearchKeyFunc+0x474>
		}
		else
		{
			func = Bt_SearchKeyFuncByKeyEvt(funcMap.doubleRightHeadset, keyEvt);
     7a6:	235f      	movs	r3, #95	; 0x5f
     7a8:	2208      	movs	r2, #8
     7aa:	18ba      	adds	r2, r7, r2
     7ac:	18d4      	adds	r4, r2, r3
     7ae:	2308      	movs	r3, #8
     7b0:	2208      	movs	r2, #8
     7b2:	4694      	mov	ip, r2
     7b4:	44bc      	add	ip, r7
     7b6:	4463      	add	r3, ip
     7b8:	2239      	movs	r2, #57	; 0x39
     7ba:	210e      	movs	r1, #14
     7bc:	1879      	adds	r1, r7, r1
     7be:	7809      	ldrb	r1, [r1, #0]
     7c0:	9103      	str	r1, [sp, #12]
     7c2:	5c99      	ldrb	r1, [r3, r2]
     7c4:	1898      	adds	r0, r3, r2
     7c6:	7840      	ldrb	r0, [r0, #1]
     7c8:	0200      	lsls	r0, r0, #8
     7ca:	4301      	orrs	r1, r0
     7cc:	1898      	adds	r0, r3, r2
     7ce:	7880      	ldrb	r0, [r0, #2]
     7d0:	0400      	lsls	r0, r0, #16
     7d2:	4301      	orrs	r1, r0
     7d4:	1898      	adds	r0, r3, r2
     7d6:	78c0      	ldrb	r0, [r0, #3]
     7d8:	0600      	lsls	r0, r0, #24
     7da:	4301      	orrs	r1, r0
     7dc:	60b9      	str	r1, [r7, #8]
     7de:	1899      	adds	r1, r3, r2
     7e0:	7908      	ldrb	r0, [r1, #4]
     7e2:	794d      	ldrb	r5, [r1, #5]
     7e4:	022d      	lsls	r5, r5, #8
     7e6:	4328      	orrs	r0, r5
     7e8:	798d      	ldrb	r5, [r1, #6]
     7ea:	042d      	lsls	r5, r5, #16
     7ec:	4328      	orrs	r0, r5
     7ee:	79c9      	ldrb	r1, [r1, #7]
     7f0:	0609      	lsls	r1, r1, #24
     7f2:	4301      	orrs	r1, r0
     7f4:	6079      	str	r1, [r7, #4]
     7f6:	1899      	adds	r1, r3, r2
     7f8:	7a08      	ldrb	r0, [r1, #8]
     7fa:	7a4d      	ldrb	r5, [r1, #9]
     7fc:	022d      	lsls	r5, r5, #8
     7fe:	4328      	orrs	r0, r5
     800:	7a8d      	ldrb	r5, [r1, #10]
     802:	042d      	lsls	r5, r5, #16
     804:	4328      	orrs	r0, r5
     806:	7ac9      	ldrb	r1, [r1, #11]
     808:	0609      	lsls	r1, r1, #24
     80a:	4301      	orrs	r1, r0
     80c:	000e      	movs	r6, r1
     80e:	1899      	adds	r1, r3, r2
     810:	7b08      	ldrb	r0, [r1, #12]
     812:	7b4d      	ldrb	r5, [r1, #13]
     814:	022d      	lsls	r5, r5, #8
     816:	4328      	orrs	r0, r5
     818:	7b8d      	ldrb	r5, [r1, #14]
     81a:	042d      	lsls	r5, r5, #16
     81c:	4328      	orrs	r0, r5
     81e:	7bc9      	ldrb	r1, [r1, #15]
     820:	0609      	lsls	r1, r1, #24
     822:	4301      	orrs	r1, r0
     824:	000d      	movs	r5, r1
     826:	2110      	movs	r1, #16
     828:	189b      	adds	r3, r3, r2
     82a:	185b      	adds	r3, r3, r1
     82c:	466a      	mov	r2, sp
     82e:	0010      	movs	r0, r2
     830:	0019      	movs	r1, r3
     832:	230c      	movs	r3, #12
     834:	001a      	movs	r2, r3
     836:	f00a fd55 	bl	b2e4 <memcpy>
     83a:	68b8      	ldr	r0, [r7, #8]
     83c:	6879      	ldr	r1, [r7, #4]
     83e:	0032      	movs	r2, r6
     840:	002b      	movs	r3, r5
     842:	f7ff fe43 	bl	4cc <Bt_SearchKeyFuncByKeyEvt>
     846:	0003      	movs	r3, r0
     848:	7023      	strb	r3, [r4, #0]
     84a:	e107      	b.n	a5c <Bt_SearchKeyFunc+0x474>
		}
	}
	else if (HSP_L == HREAD(mem_hsp_role))
     84c:	4b59      	ldr	r3, [pc, #356]	; (9b4 <Bt_SearchKeyFunc+0x3cc>)
     84e:	781b      	ldrb	r3, [r3, #0]
     850:	b2db      	uxtb	r3, r3
     852:	2b01      	cmp	r3, #1
     854:	d000      	beq.n	858 <Bt_SearchKeyFunc+0x270>
     856:	e0af      	b.n	9b8 <Bt_SearchKeyFunc+0x3d0>
	{
		if(isExpireByRemote)
     858:	230d      	movs	r3, #13
     85a:	18fb      	adds	r3, r7, r3
     85c:	781b      	ldrb	r3, [r3, #0]
     85e:	2b00      	cmp	r3, #0
     860:	d052      	beq.n	908 <Bt_SearchKeyFunc+0x320>
		{
			func = Bt_SearchKeyFuncByKeyEvt(funcMap.doubleRightHeadset, keyEvt);
     862:	235f      	movs	r3, #95	; 0x5f
     864:	2208      	movs	r2, #8
     866:	18ba      	adds	r2, r7, r2
     868:	18d4      	adds	r4, r2, r3
     86a:	2308      	movs	r3, #8
     86c:	2208      	movs	r2, #8
     86e:	4694      	mov	ip, r2
     870:	44bc      	add	ip, r7
     872:	4463      	add	r3, ip
     874:	2239      	movs	r2, #57	; 0x39
     876:	210e      	movs	r1, #14
     878:	1879      	adds	r1, r7, r1
     87a:	7809      	ldrb	r1, [r1, #0]
     87c:	9103      	str	r1, [sp, #12]
     87e:	5c99      	ldrb	r1, [r3, r2]
     880:	1898      	adds	r0, r3, r2
     882:	7840      	ldrb	r0, [r0, #1]
     884:	0200      	lsls	r0, r0, #8
     886:	4301      	orrs	r1, r0
     888:	1898      	adds	r0, r3, r2
     88a:	7880      	ldrb	r0, [r0, #2]
     88c:	0400      	lsls	r0, r0, #16
     88e:	4301      	orrs	r1, r0
     890:	1898      	adds	r0, r3, r2
     892:	78c0      	ldrb	r0, [r0, #3]
     894:	0600      	lsls	r0, r0, #24
     896:	4301      	orrs	r1, r0
     898:	60b9      	str	r1, [r7, #8]
     89a:	1899      	adds	r1, r3, r2
     89c:	7908      	ldrb	r0, [r1, #4]
     89e:	794d      	ldrb	r5, [r1, #5]
     8a0:	022d      	lsls	r5, r5, #8
     8a2:	4328      	orrs	r0, r5
     8a4:	798d      	ldrb	r5, [r1, #6]
     8a6:	042d      	lsls	r5, r5, #16
     8a8:	4328      	orrs	r0, r5
     8aa:	79c9      	ldrb	r1, [r1, #7]
     8ac:	0609      	lsls	r1, r1, #24
     8ae:	4301      	orrs	r1, r0
     8b0:	6079      	str	r1, [r7, #4]
     8b2:	1899      	adds	r1, r3, r2
     8b4:	7a08      	ldrb	r0, [r1, #8]
     8b6:	7a4d      	ldrb	r5, [r1, #9]
     8b8:	022d      	lsls	r5, r5, #8
     8ba:	4328      	orrs	r0, r5
     8bc:	7a8d      	ldrb	r5, [r1, #10]
     8be:	042d      	lsls	r5, r5, #16
     8c0:	4328      	orrs	r0, r5
     8c2:	7ac9      	ldrb	r1, [r1, #11]
     8c4:	0609      	lsls	r1, r1, #24
     8c6:	4301      	orrs	r1, r0
     8c8:	000e      	movs	r6, r1
     8ca:	1899      	adds	r1, r3, r2
     8cc:	7b08      	ldrb	r0, [r1, #12]
     8ce:	7b4d      	ldrb	r5, [r1, #13]
     8d0:	022d      	lsls	r5, r5, #8
     8d2:	4328      	orrs	r0, r5
     8d4:	7b8d      	ldrb	r5, [r1, #14]
     8d6:	042d      	lsls	r5, r5, #16
     8d8:	4328      	orrs	r0, r5
     8da:	7bc9      	ldrb	r1, [r1, #15]
     8dc:	0609      	lsls	r1, r1, #24
     8de:	4301      	orrs	r1, r0
     8e0:	000d      	movs	r5, r1
     8e2:	2110      	movs	r1, #16
     8e4:	189b      	adds	r3, r3, r2
     8e6:	185b      	adds	r3, r3, r1
     8e8:	466a      	mov	r2, sp
     8ea:	0010      	movs	r0, r2
     8ec:	0019      	movs	r1, r3
     8ee:	230c      	movs	r3, #12
     8f0:	001a      	movs	r2, r3
     8f2:	f00a fcf7 	bl	b2e4 <memcpy>
     8f6:	68b8      	ldr	r0, [r7, #8]
     8f8:	6879      	ldr	r1, [r7, #4]
     8fa:	0032      	movs	r2, r6
     8fc:	002b      	movs	r3, r5
     8fe:	f7ff fde5 	bl	4cc <Bt_SearchKeyFuncByKeyEvt>
     902:	0003      	movs	r3, r0
     904:	7023      	strb	r3, [r4, #0]
     906:	e0a9      	b.n	a5c <Bt_SearchKeyFunc+0x474>
		}
		else
		{
			func = Bt_SearchKeyFuncByKeyEvt(funcMap.doubleLeftHeadset, keyEvt);
     908:	235f      	movs	r3, #95	; 0x5f
     90a:	2208      	movs	r2, #8
     90c:	18ba      	adds	r2, r7, r2
     90e:	18d4      	adds	r4, r2, r3
     910:	2308      	movs	r3, #8
     912:	2208      	movs	r2, #8
     914:	4694      	mov	ip, r2
     916:	44bc      	add	ip, r7
     918:	4463      	add	r3, ip
     91a:	221d      	movs	r2, #29
     91c:	210e      	movs	r1, #14
     91e:	1879      	adds	r1, r7, r1
     920:	7809      	ldrb	r1, [r1, #0]
     922:	9103      	str	r1, [sp, #12]
     924:	5c99      	ldrb	r1, [r3, r2]
     926:	1898      	adds	r0, r3, r2
     928:	7840      	ldrb	r0, [r0, #1]
     92a:	0200      	lsls	r0, r0, #8
     92c:	4301      	orrs	r1, r0
     92e:	1898      	adds	r0, r3, r2
     930:	7880      	ldrb	r0, [r0, #2]
     932:	0400      	lsls	r0, r0, #16
     934:	4301      	orrs	r1, r0
     936:	1898      	adds	r0, r3, r2
     938:	78c0      	ldrb	r0, [r0, #3]
     93a:	0600      	lsls	r0, r0, #24
     93c:	4301      	orrs	r1, r0
     93e:	60b9      	str	r1, [r7, #8]
     940:	1899      	adds	r1, r3, r2
     942:	7908      	ldrb	r0, [r1, #4]
     944:	794d      	ldrb	r5, [r1, #5]
     946:	022d      	lsls	r5, r5, #8
     948:	4328      	orrs	r0, r5
     94a:	798d      	ldrb	r5, [r1, #6]
     94c:	042d      	lsls	r5, r5, #16
     94e:	4328      	orrs	r0, r5
     950:	79c9      	ldrb	r1, [r1, #7]
     952:	0609      	lsls	r1, r1, #24
     954:	4301      	orrs	r1, r0
     956:	6079      	str	r1, [r7, #4]
     958:	1899      	adds	r1, r3, r2
     95a:	7a08      	ldrb	r0, [r1, #8]
     95c:	7a4d      	ldrb	r5, [r1, #9]
     95e:	022d      	lsls	r5, r5, #8
     960:	4328      	orrs	r0, r5
     962:	7a8d      	ldrb	r5, [r1, #10]
     964:	042d      	lsls	r5, r5, #16
     966:	4328      	orrs	r0, r5
     968:	7ac9      	ldrb	r1, [r1, #11]
     96a:	0609      	lsls	r1, r1, #24
     96c:	4301      	orrs	r1, r0
     96e:	000e      	movs	r6, r1
     970:	1899      	adds	r1, r3, r2
     972:	7b08      	ldrb	r0, [r1, #12]
     974:	7b4d      	ldrb	r5, [r1, #13]
     976:	022d      	lsls	r5, r5, #8
     978:	4328      	orrs	r0, r5
     97a:	7b8d      	ldrb	r5, [r1, #14]
     97c:	042d      	lsls	r5, r5, #16
     97e:	4328      	orrs	r0, r5
     980:	7bc9      	ldrb	r1, [r1, #15]
     982:	0609      	lsls	r1, r1, #24
     984:	4301      	orrs	r1, r0
     986:	000d      	movs	r5, r1
     988:	2110      	movs	r1, #16
     98a:	189b      	adds	r3, r3, r2
     98c:	185b      	adds	r3, r3, r1
     98e:	466a      	mov	r2, sp
     990:	0010      	movs	r0, r2
     992:	0019      	movs	r1, r3
     994:	230c      	movs	r3, #12
     996:	001a      	movs	r2, r3
     998:	f00a fca4 	bl	b2e4 <memcpy>
     99c:	68b8      	ldr	r0, [r7, #8]
     99e:	6879      	ldr	r1, [r7, #4]
     9a0:	0032      	movs	r2, r6
     9a2:	002b      	movs	r3, r5
     9a4:	f7ff fd92 	bl	4cc <Bt_SearchKeyFuncByKeyEvt>
     9a8:	0003      	movs	r3, r0
     9aa:	7023      	strb	r3, [r4, #0]
     9ac:	e056      	b.n	a5c <Bt_SearchKeyFunc+0x474>
     9ae:	46c0      	nop			; (mov r8, r8)
     9b0:	0000b3ec 	.word	0x0000b3ec
     9b4:	10004bcb 	.word	0x10004bcb
		}
		
	}
	else
	{
		func = Bt_SearchKeyFuncByKeyEvt(funcMap.singleHeadset, keyEvt);
     9b8:	235f      	movs	r3, #95	; 0x5f
     9ba:	2208      	movs	r2, #8
     9bc:	18ba      	adds	r2, r7, r2
     9be:	18d4      	adds	r4, r2, r3
     9c0:	2308      	movs	r3, #8
     9c2:	2208      	movs	r2, #8
     9c4:	4694      	mov	ip, r2
     9c6:	44bc      	add	ip, r7
     9c8:	4463      	add	r3, ip
     9ca:	2201      	movs	r2, #1
     9cc:	210e      	movs	r1, #14
     9ce:	1879      	adds	r1, r7, r1
     9d0:	7809      	ldrb	r1, [r1, #0]
     9d2:	9103      	str	r1, [sp, #12]
     9d4:	5c99      	ldrb	r1, [r3, r2]
     9d6:	1898      	adds	r0, r3, r2
     9d8:	7840      	ldrb	r0, [r0, #1]
     9da:	0200      	lsls	r0, r0, #8
     9dc:	4301      	orrs	r1, r0
     9de:	1898      	adds	r0, r3, r2
     9e0:	7880      	ldrb	r0, [r0, #2]
     9e2:	0400      	lsls	r0, r0, #16
     9e4:	4301      	orrs	r1, r0
     9e6:	1898      	adds	r0, r3, r2
     9e8:	78c0      	ldrb	r0, [r0, #3]
     9ea:	0600      	lsls	r0, r0, #24
     9ec:	4301      	orrs	r1, r0
     9ee:	60b9      	str	r1, [r7, #8]
     9f0:	1899      	adds	r1, r3, r2
     9f2:	7908      	ldrb	r0, [r1, #4]
     9f4:	794d      	ldrb	r5, [r1, #5]
     9f6:	022d      	lsls	r5, r5, #8
     9f8:	4328      	orrs	r0, r5
     9fa:	798d      	ldrb	r5, [r1, #6]
     9fc:	042d      	lsls	r5, r5, #16
     9fe:	4328      	orrs	r0, r5
     a00:	79c9      	ldrb	r1, [r1, #7]
     a02:	0609      	lsls	r1, r1, #24
     a04:	4301      	orrs	r1, r0
     a06:	6079      	str	r1, [r7, #4]
     a08:	1899      	adds	r1, r3, r2
     a0a:	7a08      	ldrb	r0, [r1, #8]
     a0c:	7a4d      	ldrb	r5, [r1, #9]
     a0e:	022d      	lsls	r5, r5, #8
     a10:	4328      	orrs	r0, r5
     a12:	7a8d      	ldrb	r5, [r1, #10]
     a14:	042d      	lsls	r5, r5, #16
     a16:	4328      	orrs	r0, r5
     a18:	7ac9      	ldrb	r1, [r1, #11]
     a1a:	0609      	lsls	r1, r1, #24
     a1c:	4301      	orrs	r1, r0
     a1e:	000e      	movs	r6, r1
     a20:	1899      	adds	r1, r3, r2
     a22:	7b08      	ldrb	r0, [r1, #12]
     a24:	7b4d      	ldrb	r5, [r1, #13]
     a26:	022d      	lsls	r5, r5, #8
     a28:	4328      	orrs	r0, r5
     a2a:	7b8d      	ldrb	r5, [r1, #14]
     a2c:	042d      	lsls	r5, r5, #16
     a2e:	4328      	orrs	r0, r5
     a30:	7bc9      	ldrb	r1, [r1, #15]
     a32:	0609      	lsls	r1, r1, #24
     a34:	4301      	orrs	r1, r0
     a36:	000d      	movs	r5, r1
     a38:	2110      	movs	r1, #16
     a3a:	189b      	adds	r3, r3, r2
     a3c:	185b      	adds	r3, r3, r1
     a3e:	466a      	mov	r2, sp
     a40:	0010      	movs	r0, r2
     a42:	0019      	movs	r1, r3
     a44:	230c      	movs	r3, #12
     a46:	001a      	movs	r2, r3
     a48:	f00a fc4c 	bl	b2e4 <memcpy>
     a4c:	68b8      	ldr	r0, [r7, #8]
     a4e:	6879      	ldr	r1, [r7, #4]
     a50:	0032      	movs	r2, r6
     a52:	002b      	movs	r3, r5
     a54:	f7ff fd3a 	bl	4cc <Bt_SearchKeyFuncByKeyEvt>
     a58:	0003      	movs	r3, r0
     a5a:	7023      	strb	r3, [r4, #0]
	}

	return func;
     a5c:	235f      	movs	r3, #95	; 0x5f
     a5e:	2208      	movs	r2, #8
     a60:	4694      	mov	ip, r2
     a62:	44bc      	add	ip, r7
     a64:	4463      	add	r3, ip
     a66:	781b      	ldrb	r3, [r3, #0]
}
     a68:	0018      	movs	r0, r3
     a6a:	46bd      	mov	sp, r7
     a6c:	b01b      	add	sp, #108	; 0x6c
     a6e:	bdf0      	pop	{r4, r5, r6, r7, pc}

00000a70 <KeyPad_Event_Handle>:
		//Bt_SndCmdStartDiscovery();
	//}
//}

void KeyPad_Event_Handle(KEY_INDEX index,KEYPAD_EVT_TYPE key_evt)
{
     a70:	b580      	push	{r7, lr}
     a72:	b082      	sub	sp, #8
     a74:	af00      	add	r7, sp, #0
     a76:	0002      	movs	r2, r0
     a78:	1dfb      	adds	r3, r7, #7
     a7a:	701a      	strb	r2, [r3, #0]
     a7c:	1dbb      	adds	r3, r7, #6
     a7e:	1c0a      	adds	r2, r1, #0
     a80:	701a      	strb	r2, [r3, #0]
	//YC_LOG_INFO("key index %d, key evt %d\r\n",index,key_evt);
	DEBUG_LOG_2(LOG_LEVEL_CORE, "IPC" ,"KeyPad_Event_Handle index: 0x%02X, key_evt: 0x%02X", LOG_POINT_A300, index, key_evt);
     a82:	46c0      	nop			; (mov r8, r8)
	switch (key_evt)
     a84:	1dbb      	adds	r3, r7, #6
     a86:	781b      	ldrb	r3, [r3, #0]
     a88:	2b0b      	cmp	r3, #11
     a8a:	d833      	bhi.n	af4 <KeyPad_Event_Handle+0x84>
     a8c:	009a      	lsls	r2, r3, #2
     a8e:	4b1b      	ldr	r3, [pc, #108]	; (afc <KeyPad_Event_Handle+0x8c>)
     a90:	18d3      	adds	r3, r2, r3
     a92:	681b      	ldr	r3, [r3, #0]
     a94:	469f      	mov	pc, r3
	{
		case KEYPAD_DOWN:	//0
			//printf("key index %d, key down\r\n",index);
			keypad_keyDown_handle(index);
     a96:	1dfb      	adds	r3, r7, #7
     a98:	781b      	ldrb	r3, [r3, #0]
     a9a:	0018      	movs	r0, r3
     a9c:	f7ff fb8a 	bl	1b4 <keypad_keyDown_handle>
			Bt_ResetAutoPwroffTimer();
     aa0:	f001 fb04 	bl	20ac <Bt_ResetAutoPwroffTimer>
			break;
     aa4:	e026      	b.n	af4 <KeyPad_Event_Handle+0x84>
		case KEYPAD_UP:	//1
			//printf("key index %d, key up\r\n",index);
			keypad_keyUp_handle(index);
     aa6:	1dfb      	adds	r3, r7, #7
     aa8:	781b      	ldrb	r3, [r3, #0]
     aaa:	0018      	movs	r0, r3
     aac:	f7ff fb96 	bl	1dc <keypad_keyUp_handle>
			Bt_ResetAutoPwroffTimer();
     ab0:	f001 fafc 	bl	20ac <Bt_ResetAutoPwroffTimer>
			break;
     ab4:	e01e      	b.n	af4 <KeyPad_Event_Handle+0x84>
		case KEYPAD_TAP:		//2
			//printf("key index %d, key tap\r\n",index);
			keypad_keytap_handle(index);
     ab6:	1dfb      	adds	r3, r7, #7
     ab8:	781b      	ldrb	r3, [r3, #0]
     aba:	0018      	movs	r0, r3
     abc:	f7ff fc0a 	bl	2d4 <keypad_keytap_handle>
			break;
     ac0:	e018      	b.n	af4 <KeyPad_Event_Handle+0x84>
		case KEYPAD_DOUBLE:	//3
			//printf("key index %d, key double\r\n",index);
			keypad_key_double_handle(index);
     ac2:	1dfb      	adds	r3, r7, #7
     ac4:	781b      	ldrb	r3, [r3, #0]
     ac6:	0018      	movs	r0, r3
     ac8:	f7ff fc16 	bl	2f8 <keypad_key_double_handle>
			break;
     acc:	e012      	b.n	af4 <KeyPad_Event_Handle+0x84>
		case KEYPAD_TRIPLE:	//4
			//printf("key index %d, key triple\r\n",index);
			keypad_key_triple_handle(index);
     ace:	1dfb      	adds	r3, r7, #7
     ad0:	781b      	ldrb	r3, [r3, #0]
     ad2:	0018      	movs	r0, r3
     ad4:	f7ff fc22 	bl	31c <keypad_key_triple_handle>
			break;
     ad8:	e00c      	b.n	af4 <KeyPad_Event_Handle+0x84>
		case KEYPAD_PRESS:	//5
			//printf("key index %d, key press\r\n",index);
			keypad_keyPress_handle(index);
     ada:	1dfb      	adds	r3, r7, #7
     adc:	781b      	ldrb	r3, [r3, #0]
     ade:	0018      	movs	r0, r3
     ae0:	f7ff fb5e 	bl	1a0 <keypad_keyPress_handle>
			break;
     ae4:	e006      	b.n	af4 <KeyPad_Event_Handle+0x84>
		case KEYPAD_PRESS_RELEASE:
			//printf("key index %d, key press release \r\n",index);
			break;
		case KEYPAD_LONG_PRESS:	//6
			//printf("key index %d, key long press\r\n",index);
			keypad_key_longPress_handle(index);
     ae6:	1dfb      	adds	r3, r7, #7
     ae8:	781b      	ldrb	r3, [r3, #0]
     aea:	0018      	movs	r0, r3
     aec:	f7ff fc4c 	bl	388 <keypad_key_longPress_handle>
			break;
     af0:	e000      	b.n	af4 <KeyPad_Event_Handle+0x84>
			//printf("key index %d, key press\r\n",index);
			keypad_keyPress_handle(index);
			break;
		case KEYPAD_PRESS_RELEASE:
			//printf("key index %d, key press release \r\n",index);
			break;
     af2:	46c0      	nop			; (mov r8, r8)
			break;
		case KEYPAD_LONGLONG_RELEASE://9
			//printf("key index %d, key longlong release\r\n",index);
			break;
	}
}
     af4:	46c0      	nop			; (mov r8, r8)
     af6:	46bd      	mov	sp, r7
     af8:	b002      	add	sp, #8
     afa:	bd80      	pop	{r7, pc}
     afc:	0000b444 	.word	0x0000b444

00000b00 <NVIC_SetPriority>:
  \note    The priority cannot be set for every core interrupt.
  \param [in]      IRQn  Interrupt number.
  \param [in]  priority  Priority to set.
 */
__STATIC_INLINE void NVIC_SetPriority(IRQn_Type IRQn, uint32_t priority)
{
     b00:	b5b0      	push	{r4, r5, r7, lr}
     b02:	b082      	sub	sp, #8
     b04:	af00      	add	r7, sp, #0
     b06:	0002      	movs	r2, r0
     b08:	6039      	str	r1, [r7, #0]
     b0a:	1dfb      	adds	r3, r7, #7
     b0c:	701a      	strb	r2, [r3, #0]
  if ((int32_t)(IRQn) < 0)
     b0e:	1dfb      	adds	r3, r7, #7
     b10:	781b      	ldrb	r3, [r3, #0]
     b12:	2b7f      	cmp	r3, #127	; 0x7f
     b14:	d932      	bls.n	b7c <NVIC_SetPriority+0x7c>
  {
    SCB->SHP[_SHP_IDX(IRQn)] = ((uint32_t)(SCB->SHP[_SHP_IDX(IRQn)] & ~(0xFFUL << _BIT_SHIFT(IRQn))) |
     b16:	4c2f      	ldr	r4, [pc, #188]	; (bd4 <NVIC_SetPriority+0xd4>)
     b18:	1dfb      	adds	r3, r7, #7
     b1a:	781b      	ldrb	r3, [r3, #0]
     b1c:	001a      	movs	r2, r3
     b1e:	230f      	movs	r3, #15
     b20:	4013      	ands	r3, r2
     b22:	3b08      	subs	r3, #8
     b24:	0899      	lsrs	r1, r3, #2
     b26:	4a2b      	ldr	r2, [pc, #172]	; (bd4 <NVIC_SetPriority+0xd4>)
     b28:	1dfb      	adds	r3, r7, #7
     b2a:	781b      	ldrb	r3, [r3, #0]
     b2c:	0018      	movs	r0, r3
     b2e:	230f      	movs	r3, #15
     b30:	4003      	ands	r3, r0
     b32:	3b08      	subs	r3, #8
     b34:	089b      	lsrs	r3, r3, #2
     b36:	3306      	adds	r3, #6
     b38:	009b      	lsls	r3, r3, #2
     b3a:	18d3      	adds	r3, r2, r3
     b3c:	3304      	adds	r3, #4
     b3e:	681b      	ldr	r3, [r3, #0]
     b40:	1dfa      	adds	r2, r7, #7
     b42:	7812      	ldrb	r2, [r2, #0]
     b44:	0010      	movs	r0, r2
     b46:	2203      	movs	r2, #3
     b48:	4002      	ands	r2, r0
     b4a:	00d2      	lsls	r2, r2, #3
     b4c:	20ff      	movs	r0, #255	; 0xff
     b4e:	4090      	lsls	r0, r2
     b50:	0002      	movs	r2, r0
     b52:	43d2      	mvns	r2, r2
     b54:	401a      	ands	r2, r3
       (((priority << (8U - __NVIC_PRIO_BITS)) & (uint32_t)0xFFUL) << _BIT_SHIFT(IRQn)));
     b56:	683b      	ldr	r3, [r7, #0]
     b58:	019b      	lsls	r3, r3, #6
     b5a:	20ff      	movs	r0, #255	; 0xff
     b5c:	4018      	ands	r0, r3
     b5e:	1dfb      	adds	r3, r7, #7
     b60:	781b      	ldrb	r3, [r3, #0]
     b62:	001d      	movs	r5, r3
     b64:	2303      	movs	r3, #3
     b66:	402b      	ands	r3, r5
     b68:	00db      	lsls	r3, r3, #3
     b6a:	4098      	lsls	r0, r3
     b6c:	0003      	movs	r3, r0
 */
__STATIC_INLINE void NVIC_SetPriority(IRQn_Type IRQn, uint32_t priority)
{
  if ((int32_t)(IRQn) < 0)
  {
    SCB->SHP[_SHP_IDX(IRQn)] = ((uint32_t)(SCB->SHP[_SHP_IDX(IRQn)] & ~(0xFFUL << _BIT_SHIFT(IRQn))) |
     b6e:	431a      	orrs	r2, r3
     b70:	1d8b      	adds	r3, r1, #6
     b72:	009b      	lsls	r3, r3, #2
     b74:	18e3      	adds	r3, r4, r3
     b76:	3304      	adds	r3, #4
     b78:	601a      	str	r2, [r3, #0]
  else
  {
    NVIC->IP[_IP_IDX(IRQn)]  = ((uint32_t)(NVIC->IP[_IP_IDX(IRQn)]  & ~(0xFFUL << _BIT_SHIFT(IRQn))) |
       (((priority << (8U - __NVIC_PRIO_BITS)) & (uint32_t)0xFFUL) << _BIT_SHIFT(IRQn)));
  }
}
     b7a:	e027      	b.n	bcc <NVIC_SetPriority+0xcc>
    SCB->SHP[_SHP_IDX(IRQn)] = ((uint32_t)(SCB->SHP[_SHP_IDX(IRQn)] & ~(0xFFUL << _BIT_SHIFT(IRQn))) |
       (((priority << (8U - __NVIC_PRIO_BITS)) & (uint32_t)0xFFUL) << _BIT_SHIFT(IRQn)));
  }
  else
  {
    NVIC->IP[_IP_IDX(IRQn)]  = ((uint32_t)(NVIC->IP[_IP_IDX(IRQn)]  & ~(0xFFUL << _BIT_SHIFT(IRQn))) |
     b7c:	4c16      	ldr	r4, [pc, #88]	; (bd8 <NVIC_SetPriority+0xd8>)
     b7e:	1dfb      	adds	r3, r7, #7
     b80:	781b      	ldrb	r3, [r3, #0]
     b82:	b25b      	sxtb	r3, r3
     b84:	089b      	lsrs	r3, r3, #2
     b86:	4914      	ldr	r1, [pc, #80]	; (bd8 <NVIC_SetPriority+0xd8>)
     b88:	1dfa      	adds	r2, r7, #7
     b8a:	7812      	ldrb	r2, [r2, #0]
     b8c:	b252      	sxtb	r2, r2
     b8e:	0892      	lsrs	r2, r2, #2
     b90:	32c0      	adds	r2, #192	; 0xc0
     b92:	0092      	lsls	r2, r2, #2
     b94:	5852      	ldr	r2, [r2, r1]
     b96:	1df9      	adds	r1, r7, #7
     b98:	7809      	ldrb	r1, [r1, #0]
     b9a:	0008      	movs	r0, r1
     b9c:	2103      	movs	r1, #3
     b9e:	4001      	ands	r1, r0
     ba0:	00c9      	lsls	r1, r1, #3
     ba2:	20ff      	movs	r0, #255	; 0xff
     ba4:	4088      	lsls	r0, r1
     ba6:	0001      	movs	r1, r0
     ba8:	43c9      	mvns	r1, r1
     baa:	4011      	ands	r1, r2
       (((priority << (8U - __NVIC_PRIO_BITS)) & (uint32_t)0xFFUL) << _BIT_SHIFT(IRQn)));
     bac:	683a      	ldr	r2, [r7, #0]
     bae:	0192      	lsls	r2, r2, #6
     bb0:	20ff      	movs	r0, #255	; 0xff
     bb2:	4010      	ands	r0, r2
     bb4:	1dfa      	adds	r2, r7, #7
     bb6:	7812      	ldrb	r2, [r2, #0]
     bb8:	0015      	movs	r5, r2
     bba:	2203      	movs	r2, #3
     bbc:	402a      	ands	r2, r5
     bbe:	00d2      	lsls	r2, r2, #3
     bc0:	4090      	lsls	r0, r2
     bc2:	0002      	movs	r2, r0
    SCB->SHP[_SHP_IDX(IRQn)] = ((uint32_t)(SCB->SHP[_SHP_IDX(IRQn)] & ~(0xFFUL << _BIT_SHIFT(IRQn))) |
       (((priority << (8U - __NVIC_PRIO_BITS)) & (uint32_t)0xFFUL) << _BIT_SHIFT(IRQn)));
  }
  else
  {
    NVIC->IP[_IP_IDX(IRQn)]  = ((uint32_t)(NVIC->IP[_IP_IDX(IRQn)]  & ~(0xFFUL << _BIT_SHIFT(IRQn))) |
     bc4:	430a      	orrs	r2, r1
     bc6:	33c0      	adds	r3, #192	; 0xc0
     bc8:	009b      	lsls	r3, r3, #2
     bca:	511a      	str	r2, [r3, r4]
       (((priority << (8U - __NVIC_PRIO_BITS)) & (uint32_t)0xFFUL) << _BIT_SHIFT(IRQn)));
  }
}
     bcc:	46c0      	nop			; (mov r8, r8)
     bce:	46bd      	mov	sp, r7
     bd0:	b002      	add	sp, #8
     bd2:	bdb0      	pop	{r4, r5, r7, pc}
     bd4:	e000ed00 	.word	0xe000ed00
     bd8:	e000e100 	.word	0xe000e100

00000bdc <SysTick_Config>:
  \note    When the variable <b>__Vendor_SysTickConfig</b> is set to 1, then the
           function <b>SysTick_Config</b> is not included. In this case, the file <b><i>device</i>.h</b>
           must contain a vendor-specific implementation of this function.
 */
__STATIC_INLINE uint32_t SysTick_Config(uint32_t ticks)
{
     bdc:	b580      	push	{r7, lr}
     bde:	b082      	sub	sp, #8
     be0:	af00      	add	r7, sp, #0
     be2:	6078      	str	r0, [r7, #4]
  if ((ticks - 1UL) > SysTick_LOAD_RELOAD_Msk)
     be4:	687b      	ldr	r3, [r7, #4]
     be6:	3b01      	subs	r3, #1
     be8:	4a0c      	ldr	r2, [pc, #48]	; (c1c <SysTick_Config+0x40>)
     bea:	4293      	cmp	r3, r2
     bec:	d901      	bls.n	bf2 <SysTick_Config+0x16>
  {
    return (1UL);                                                   /* Reload value impossible */
     bee:	2301      	movs	r3, #1
     bf0:	e010      	b.n	c14 <SysTick_Config+0x38>
  }

  SysTick->LOAD  = (uint32_t)(ticks - 1UL);                         /* set reload register */
     bf2:	4b0b      	ldr	r3, [pc, #44]	; (c20 <SysTick_Config+0x44>)
     bf4:	687a      	ldr	r2, [r7, #4]
     bf6:	3a01      	subs	r2, #1
     bf8:	605a      	str	r2, [r3, #4]
  NVIC_SetPriority (SysTick_IRQn, (1UL << __NVIC_PRIO_BITS) - 1UL); /* set Priority for Systick Interrupt */
     bfa:	2301      	movs	r3, #1
     bfc:	425b      	negs	r3, r3
     bfe:	2103      	movs	r1, #3
     c00:	0018      	movs	r0, r3
     c02:	f7ff ff7d 	bl	b00 <NVIC_SetPriority>
  SysTick->VAL   = 0UL;                                             /* Load the SysTick Counter Value */
     c06:	4b06      	ldr	r3, [pc, #24]	; (c20 <SysTick_Config+0x44>)
     c08:	2200      	movs	r2, #0
     c0a:	609a      	str	r2, [r3, #8]
  SysTick->CTRL  = SysTick_CTRL_CLKSOURCE_Msk |
     c0c:	4b04      	ldr	r3, [pc, #16]	; (c20 <SysTick_Config+0x44>)
     c0e:	2207      	movs	r2, #7
     c10:	601a      	str	r2, [r3, #0]
                   SysTick_CTRL_TICKINT_Msk   |
                   SysTick_CTRL_ENABLE_Msk;                         /* Enable SysTick IRQ and SysTick Timer */
  return (0UL);                                                     /* Function successful */
     c12:	2300      	movs	r3, #0
}
     c14:	0018      	movs	r0, r3
     c16:	46bd      	mov	sp, r7
     c18:	b002      	add	sp, #8
     c1a:	bd80      	pop	{r7, pc}
     c1c:	00ffffff 	.word	0x00ffffff
     c20:	e000e010 	.word	0xe000e010

00000c24 <hw_delay>:
//#define CLRBIT(reg, val)	HWRITE(reg, HREAD(reg) & ~(val))

#define BW(addr)			(int)*(addr) << 24 | (int)*(addr + 1) << 16 | (int)*(addr + 2) << 8 | *(addr + 3)

static inline void hw_delay() 
{
     c24:	b580      	push	{r7, lr}
     c26:	af00      	add	r7, sp, #0
	__asm__ __volatile__("nop");
     c28:	46c0      	nop			; (mov r8, r8)
	__asm__ __volatile__("nop");
     c2a:	46c0      	nop			; (mov r8, r8)
	__asm__ __volatile__("nop");
     c2c:	46c0      	nop			; (mov r8, r8)
	__asm__ __volatile__("nop");
     c2e:	46c0      	nop			; (mov r8, r8)
	__asm__ __volatile__("nop");
     c30:	46c0      	nop			; (mov r8, r8)
}
     c32:	46c0      	nop			; (mov r8, r8)
     c34:	46bd      	mov	sp, r7
     c36:	bd80      	pop	{r7, pc}

00000c38 <Bt_init>:
//{
//	IPC_TxControlCmd(BT_CMD_RESET_M0_CLK);	
//}

void Bt_init()
{
     c38:	b580      	push	{r7, lr}
     c3a:	af00      	add	r7, sp, #0
	gBRState.topState = BR_WAIT_POWER_ON;
     c3c:	4b07      	ldr	r3, [pc, #28]	; (c5c <Bt_init+0x24>)
     c3e:	2203      	movs	r2, #3
     c40:	761a      	strb	r2, [r3, #24]
	gBRState.secondState=BR_IDLE;
     c42:	4b06      	ldr	r3, [pc, #24]	; (c5c <Bt_init+0x24>)
     c44:	2205      	movs	r2, #5
     c46:	765a      	strb	r2, [r3, #25]
	gBRState.thirdlyState = BR_IDLE;
     c48:	4b04      	ldr	r3, [pc, #16]	; (c5c <Bt_init+0x24>)
     c4a:	2205      	movs	r2, #5
     c4c:	769a      	strb	r2, [r3, #26]
	gBRState.twsState = BR_IDLE;
     c4e:	4b03      	ldr	r3, [pc, #12]	; (c5c <Bt_init+0x24>)
     c50:	2205      	movs	r2, #5
     c52:	76da      	strb	r2, [r3, #27]
	//gBRState.gStateFlag = 0xff;
	//Bt_SetAutoPwroffTimer(AUTO_POWEROFF_WAKEUP);

}
     c54:	46c0      	nop			; (mov r8, r8)
     c56:	46bd      	mov	sp, r7
     c58:	bd80      	pop	{r7, pc}
     c5a:	46c0      	nop			; (mov r8, r8)
     c5c:	100108b0 	.word	0x100108b0

00000c60 <Bt_CBMaxPower>:


void Bt_CBMaxPower(int params)
{
     c60:	b580      	push	{r7, lr}
     c62:	b082      	sub	sp, #8
     c64:	af00      	add	r7, sp, #0
     c66:	6078      	str	r0, [r7, #4]
	Bt_SndCmdSndIncPwr();
     c68:	f001 fcf8 	bl	265c <Bt_SndCmdSndIncPwr>
}
     c6c:	46c0      	nop			; (mov r8, r8)
     c6e:	46bd      	mov	sp, r7
     c70:	b002      	add	sp, #8
     c72:	bd80      	pop	{r7, pc}

00000c74 <Bt_SetIncPwrTimer>:

void Bt_SetIncPwrTimer()
{
     c74:	b580      	push	{r7, lr}
     c76:	af00      	add	r7, sp, #0
	if (HREAD(REG_B_TWS_ROLE) != TWS_SET_SLAVE)
     c78:	4b07      	ldr	r3, [pc, #28]	; (c98 <Bt_SetIncPwrTimer+0x24>)
     c7a:	781b      	ldrb	r3, [r3, #0]
     c7c:	b2db      	uxtb	r3, r3
     c7e:	2b33      	cmp	r3, #51	; 0x33
     c80:	d007      	beq.n	c92 <Bt_SetIncPwrTimer+0x1e>
		SYS_SetTimer(&gMAXPowerTimer, 1200, TIMER_CYCLE|TIMER_TYPE_BIT, Bt_CBMaxPower);
     c82:	4a06      	ldr	r2, [pc, #24]	; (c9c <Bt_SetIncPwrTimer+0x28>)
     c84:	2396      	movs	r3, #150	; 0x96
     c86:	00d9      	lsls	r1, r3, #3
     c88:	4805      	ldr	r0, [pc, #20]	; (ca0 <Bt_SetIncPwrTimer+0x2c>)
     c8a:	0013      	movs	r3, r2
     c8c:	2281      	movs	r2, #129	; 0x81
     c8e:	f003 f8b1 	bl	3df4 <SYS_SetTimer>
}
     c92:	46c0      	nop			; (mov r8, r8)
     c94:	46bd      	mov	sp, r7
     c96:	bd80      	pop	{r7, pc}
     c98:	100049d5 	.word	0x100049d5
     c9c:	00000c61 	.word	0x00000c61
     ca0:	1001080c 	.word	0x1001080c

00000ca4 <Bt_CBConnectedLed>:



void Bt_CBConnectedLed(int params)
{
     ca4:	b580      	push	{r7, lr}
     ca6:	b082      	sub	sp, #8
     ca8:	af00      	add	r7, sp, #0
     caa:	6078      	str	r0, [r7, #4]
	if (Bt_checkBRIsConnected()){
     cac:	f001 f976 	bl	1f9c <Bt_checkBRIsConnected>
     cb0:	1e03      	subs	r3, r0, #0
     cb2:	d002      	beq.n	cba <Bt_CBConnectedLed+0x16>
		Bt_ProcessLedFunc(LED_EVT_CONNECTED);
     cb4:	2002      	movs	r0, #2
     cb6:	f006 fa59 	bl	716c <Bt_ProcessLedFunc>
	}
}
     cba:	46c0      	nop			; (mov r8, r8)
     cbc:	46bd      	mov	sp, r7
     cbe:	b002      	add	sp, #8
     cc0:	bd80      	pop	{r7, pc}
     cc2:	46c0      	nop			; (mov r8, r8)

00000cc4 <Bt_SndCmdExitTWS>:

void Bt_SndCmdExitTWS()
{
     cc4:	b580      	push	{r7, lr}
     cc6:	af00      	add	r7, sp, #0
	// For function good, teminate close.
	return;
     cc8:	46c0      	nop			; (mov r8, r8)
	IPC_TxControlCmd(BT_CMD_TWS_NONE);
}
     cca:	46bd      	mov	sp, r7
     ccc:	bd80      	pop	{r7, pc}
     cce:	46c0      	nop			; (mov r8, r8)

00000cd0 <Bt_CBWaitSlaveTimeout>:

void Bt_CBWaitSlaveTimeout(int params){
     cd0:	b580      	push	{r7, lr}
     cd2:	b082      	sub	sp, #8
     cd4:	af00      	add	r7, sp, #0
     cd6:	6078      	str	r0, [r7, #4]
	if (gBRState.twsState == BR_TWS_WAIT_SLAVE){
     cd8:	4b04      	ldr	r3, [pc, #16]	; (cec <Bt_CBWaitSlaveTimeout+0x1c>)
     cda:	7edb      	ldrb	r3, [r3, #27]
     cdc:	2b14      	cmp	r3, #20
     cde:	d101      	bne.n	ce4 <Bt_CBWaitSlaveTimeout+0x14>
		Bt_SndCmdExitTWS();
     ce0:	f7ff fff0 	bl	cc4 <Bt_SndCmdExitTWS>
	}
}
     ce4:	46c0      	nop			; (mov r8, r8)
     ce6:	46bd      	mov	sp, r7
     ce8:	b002      	add	sp, #8
     cea:	bd80      	pop	{r7, pc}
     cec:	100108b0 	.word	0x100108b0

00000cf0 <Bt_CBSniffMul>:

void Bt_CBSniffMul(int prams)
{
     cf0:	b580      	push	{r7, lr}
     cf2:	b084      	sub	sp, #16
     cf4:	af00      	add	r7, sp, #0
     cf6:	6078      	str	r0, [r7, #4]
	//UI_STATE_BT_SNIFF,check is in sniff mode
	uint8_t state = HREAD(mem_ui_state_map);
     cf8:	4a04      	ldr	r2, [pc, #16]	; (d0c <Bt_CBSniffMul+0x1c>)
     cfa:	230f      	movs	r3, #15
     cfc:	18fb      	adds	r3, r7, r3
     cfe:	7812      	ldrb	r2, [r2, #0]
     d00:	701a      	strb	r2, [r3, #0]
	if ((0x20 & state)  == 0x20)
	{
		//Bt_SndCmdEnableSniffMul();
	}
}
     d02:	46c0      	nop			; (mov r8, r8)
     d04:	46bd      	mov	sp, r7
     d06:	b004      	add	sp, #16
     d08:	bd80      	pop	{r7, pc}
     d0a:	46c0      	nop			; (mov r8, r8)
     d0c:	100046c1 	.word	0x100046c1

00000d10 <Bt_SetSniffMulTimer>:

void Bt_SetSniffMulTimer()
{
     d10:	b580      	push	{r7, lr}
     d12:	af00      	add	r7, sp, #0
	SYS_SetTimer(&gSniffMulTimer, SNIFF_MUL_TIMEOUT,
     d14:	4b04      	ldr	r3, [pc, #16]	; (d28 <Bt_SetSniffMulTimer+0x18>)
     d16:	4805      	ldr	r0, [pc, #20]	; (d2c <Bt_SetSniffMulTimer+0x1c>)
     d18:	2280      	movs	r2, #128	; 0x80
     d1a:	2128      	movs	r1, #40	; 0x28
     d1c:	f003 f86a 	bl	3df4 <SYS_SetTimer>
		TIMER_TYPE_BIT|TIMER_SINGLE, Bt_CBSniffMul);
}
     d20:	46c0      	nop			; (mov r8, r8)
     d22:	46bd      	mov	sp, r7
     d24:	bd80      	pop	{r7, pc}
     d26:	46c0      	nop			; (mov r8, r8)
     d28:	00000cf1 	.word	0x00000cf1
     d2c:	10010868 	.word	0x10010868

00000d30 <Bt_CBEnterSniff>:

void Bt_CBEnterSniff(int prams)
{
     d30:	b580      	push	{r7, lr}
     d32:	b082      	sub	sp, #8
     d34:	af00      	add	r7, sp, #0
     d36:	6078      	str	r0, [r7, #4]
	if(HREAD(mem_a2dp_state) == AVDTP_IDENTIFIER_START)
     d38:	4b05      	ldr	r3, [pc, #20]	; (d50 <Bt_CBEnterSniff+0x20>)
     d3a:	781b      	ldrb	r3, [r3, #0]
     d3c:	b2db      	uxtb	r3, r3
     d3e:	2b07      	cmp	r3, #7
     d40:	d002      	beq.n	d48 <Bt_CBEnterSniff+0x18>
	{
		return;
	}
	Bt_SndCmdEnterSniff();
     d42:	f001 fc51 	bl	25e8 <Bt_SndCmdEnterSniff>
     d46:	e000      	b.n	d4a <Bt_CBEnterSniff+0x1a>

void Bt_CBEnterSniff(int prams)
{
	if(HREAD(mem_a2dp_state) == AVDTP_IDENTIFIER_START)
	{
		return;
     d48:	46c0      	nop			; (mov r8, r8)
	}
	Bt_SndCmdEnterSniff();
}
     d4a:	46bd      	mov	sp, r7
     d4c:	b002      	add	sp, #8
     d4e:	bd80      	pop	{r7, pc}
     d50:	100049e3 	.word	0x100049e3

00000d54 <Bt_SetEnterSniffTimer>:

void Bt_SetEnterSniffTimer()
{
     d54:	b580      	push	{r7, lr}
     d56:	af00      	add	r7, sp, #0
	if(HREAD(mem_a2dp_state) == AVDTP_IDENTIFIER_START)
     d58:	4b07      	ldr	r3, [pc, #28]	; (d78 <Bt_SetEnterSniffTimer+0x24>)
     d5a:	781b      	ldrb	r3, [r3, #0]
     d5c:	b2db      	uxtb	r3, r3
     d5e:	2b07      	cmp	r3, #7
     d60:	d006      	beq.n	d70 <Bt_SetEnterSniffTimer+0x1c>
	{
		return;
	}
	SYS_SetTimer(&gEnterSniffTimer, SNIFF_ENTER_DELAY,
     d62:	4b06      	ldr	r3, [pc, #24]	; (d7c <Bt_SetEnterSniffTimer+0x28>)
     d64:	4806      	ldr	r0, [pc, #24]	; (d80 <Bt_SetEnterSniffTimer+0x2c>)
     d66:	2280      	movs	r2, #128	; 0x80
     d68:	2196      	movs	r1, #150	; 0x96
     d6a:	f003 f843 	bl	3df4 <SYS_SetTimer>
     d6e:	e000      	b.n	d72 <Bt_SetEnterSniffTimer+0x1e>

void Bt_SetEnterSniffTimer()
{
	if(HREAD(mem_a2dp_state) == AVDTP_IDENTIFIER_START)
	{
		return;
     d70:	46c0      	nop			; (mov r8, r8)
	}
	SYS_SetTimer(&gEnterSniffTimer, SNIFF_ENTER_DELAY,
		TIMER_TYPE_BIT|TIMER_SINGLE, Bt_CBEnterSniff);
}
     d72:	46bd      	mov	sp, r7
     d74:	bd80      	pop	{r7, pc}
     d76:	46c0      	nop			; (mov r8, r8)
     d78:	100049e3 	.word	0x100049e3
     d7c:	00000d31 	.word	0x00000d31
     d80:	100107f0 	.word	0x100107f0

00000d84 <Bt_CBClosePaDelay>:

void Bt_CBClosePaDelay()
{
     d84:	b580      	push	{r7, lr}
     d86:	af00      	add	r7, sp, #0
	if (7 == HREAD(mem_a2dp_state))
     d88:	4b05      	ldr	r3, [pc, #20]	; (da0 <Bt_CBClosePaDelay+0x1c>)
     d8a:	781b      	ldrb	r3, [r3, #0]
     d8c:	b2db      	uxtb	r3, r3
     d8e:	2b07      	cmp	r3, #7
     d90:	d003      	beq.n	d9a <Bt_CBClosePaDelay+0x16>
		return;
	VP_snd_voiceEvt(VP_POPUP);
     d92:	2013      	movs	r0, #19
     d94:	f007 fdfa 	bl	898c <VP_snd_voiceEvt>
     d98:	e000      	b.n	d9c <Bt_CBClosePaDelay+0x18>
}

void Bt_CBClosePaDelay()
{
	if (7 == HREAD(mem_a2dp_state))
		return;
     d9a:	46c0      	nop			; (mov r8, r8)
	VP_snd_voiceEvt(VP_POPUP);
}
     d9c:	46bd      	mov	sp, r7
     d9e:	bd80      	pop	{r7, pc}
     da0:	100049e3 	.word	0x100049e3

00000da4 <Bt_ClosePaDelay>:

void Bt_ClosePaDelay()
{
     da4:	b580      	push	{r7, lr}
     da6:	af00      	add	r7, sp, #0
	SYS_SetTimer(&gClosePaDelayTimer, CLOSE_PA_DELAY,
     da8:	4b04      	ldr	r3, [pc, #16]	; (dbc <Bt_ClosePaDelay+0x18>)
     daa:	4805      	ldr	r0, [pc, #20]	; (dc0 <Bt_ClosePaDelay+0x1c>)
     dac:	2280      	movs	r2, #128	; 0x80
     dae:	213c      	movs	r1, #60	; 0x3c
     db0:	f003 f820 	bl	3df4 <SYS_SetTimer>
		TIMER_TYPE_BIT|TIMER_SINGLE, Bt_CBClosePaDelay);
}
     db4:	46c0      	nop			; (mov r8, r8)
     db6:	46bd      	mov	sp, r7
     db8:	bd80      	pop	{r7, pc}
     dba:	46c0      	nop			; (mov r8, r8)
     dbc:	00000d85 	.word	0x00000d85
     dc0:	10010880 	.word	0x10010880

00000dc4 <Bt_RelasePaDelay>:

void Bt_RelasePaDelay()
{
     dc4:	b580      	push	{r7, lr}
     dc6:	af00      	add	r7, sp, #0
	SYS_ReleaseTimer(&gClosePaDelayTimer);
     dc8:	4b03      	ldr	r3, [pc, #12]	; (dd8 <Bt_RelasePaDelay+0x14>)
     dca:	0018      	movs	r0, r3
     dcc:	f003 f948 	bl	4060 <SYS_ReleaseTimer>
}
     dd0:	46c0      	nop			; (mov r8, r8)
     dd2:	46bd      	mov	sp, r7
     dd4:	bd80      	pop	{r7, pc}
     dd6:	46c0      	nop			; (mov r8, r8)
     dd8:	10010880 	.word	0x10010880

00000ddc <Bt_Reset>:

void Bt_Reset()
{
     ddc:	b580      	push	{r7, lr}
     dde:	af00      	add	r7, sp, #0
			Bt_init();	
     de0:	f7ff ff2a 	bl	c38 <Bt_init>
			SYS_TimerInit();
     de4:	f002 ffe2 	bl	3dac <SYS_TimerInit>
			keypad_init(KeyPad_Event_Handle);
     de8:	4b08      	ldr	r3, [pc, #32]	; (e0c <Bt_Reset+0x30>)
     dea:	0018      	movs	r0, r3
     dec:	f003 fa1a 	bl	4224 <keypad_init>
			//QSPI_Init();
			#ifdef SCO_48K_FIR
			sco_fir_init();
     df0:	f009 fb1e 	bl	a430 <sco_fir_init>
			#endif// SCO_48K_FIR
			VP_init();
     df4:	f007 fd50 	bl	8898 <VP_init>
			led_init();
     df8:	f005 fff8 	bl	6dec <led_init>
			Bat_init();
     dfc:	f008 fafa 	bl	93f4 <Bat_init>
			FarrowFilterInit();
     e00:	f009 fd0c 	bl	a81c <FarrowFilterInit>
			//SYS_SetTimer(&gResetTimer,
			//	100,
			//	TIMER_CYCLE|TIMER_TYPE_BIT,
			//	Bt_CBM0ClkReset);
}
     e04:	46c0      	nop			; (mov r8, r8)
     e06:	46bd      	mov	sp, r7
     e08:	bd80      	pop	{r7, pc}
     e0a:	46c0      	nop			; (mov r8, r8)
     e0c:	00000a71 	.word	0x00000a71

00000e10 <Bt_PowerOn>:

void Bt_PowerOn()
{
     e10:	b580      	push	{r7, lr}
     e12:	af00      	add	r7, sp, #0

			gBRState.topState = BR_POWER_ON;
     e14:	4b16      	ldr	r3, [pc, #88]	; (e70 <Bt_PowerOn+0x60>)
     e16:	2204      	movs	r2, #4
     e18:	761a      	strb	r2, [r3, #24]
			#ifdef AUDIO_SYNC_DEF
			g_is_need_send_slave_reset_audio_cmd = 0;
     e1a:	4b16      	ldr	r3, [pc, #88]	; (e74 <Bt_PowerOn+0x64>)
     e1c:	2200      	movs	r2, #0
     e1e:	701a      	strb	r2, [r3, #0]
			gHfpWorkingState = 0;
     e20:	4b15      	ldr	r3, [pc, #84]	; (e78 <Bt_PowerOn+0x68>)
     e22:	2200      	movs	r2, #0
     e24:	701a      	strb	r2, [r3, #0]
			#endif //AUDIO_SYNC_DEF
			gReconWorkTimeout = DEFAULT_DISCOVERY_WORK_TIMEOUT;
     e26:	4b15      	ldr	r3, [pc, #84]	; (e7c <Bt_PowerOn+0x6c>)
     e28:	22fa      	movs	r2, #250	; 0xfa
     e2a:	801a      	strh	r2, [r3, #0]

			//VP_snd_voiceEvt(VP_POWERON);
			Bt_ProcessLedFunc(LED_EVT_POWER_ON);
     e2c:	2000      	movs	r0, #0
     e2e:	f006 f99d 	bl	716c <Bt_ProcessLedFunc>
			Bt_SetAutoPwroffTimer(AUTO_POWEROFF_IDLE,false,Bt_CBIdleTimeout);
     e32:	4b13      	ldr	r3, [pc, #76]	; (e80 <Bt_PowerOn+0x70>)
     e34:	4813      	ldr	r0, [pc, #76]	; (e84 <Bt_PowerOn+0x74>)
     e36:	001a      	movs	r2, r3
     e38:	2100      	movs	r1, #0
     e3a:	f001 f94b 	bl	20d4 <Bt_SetAutoPwroffTimer>
			Bt_LoadReconnectInfo();
     e3e:	f001 fa21 	bl	2284 <Bt_LoadReconnectInfo>
			Bt_checkReconInfoCRC();
     e42:	f001 f96d 	bl	2120 <Bt_checkReconInfoCRC>
			// Make sure nv info is right
			if(((HREAD(mem_tws_record_state)&0xf0) == 0x50)
     e46:	4b10      	ldr	r3, [pc, #64]	; (e88 <Bt_PowerOn+0x78>)
     e48:	781b      	ldrb	r3, [r3, #0]
     e4a:	b2db      	uxtb	r3, r3
     e4c:	001a      	movs	r2, r3
     e4e:	23f0      	movs	r3, #240	; 0xf0
     e50:	4013      	ands	r3, r2
     e52:	2b50      	cmp	r3, #80	; 0x50
     e54:	d007      	beq.n	e66 <Bt_PowerOn+0x56>
				||((HREAD(mem_tws_record_state)&0x0f) == 0x05)){
     e56:	4b0c      	ldr	r3, [pc, #48]	; (e88 <Bt_PowerOn+0x78>)
     e58:	781b      	ldrb	r3, [r3, #0]
     e5a:	b2db      	uxtb	r3, r3
     e5c:	001a      	movs	r2, r3
     e5e:	230f      	movs	r3, #15
     e60:	4013      	ands	r3, r2
     e62:	2b05      	cmp	r3, #5
     e64:	d101      	bne.n	e6a <Bt_PowerOn+0x5a>
				Bt_SndCmdLoadInfo();
     e66:	f001 fb75 	bl	2554 <Bt_SndCmdLoadInfo>
			}
}
     e6a:	46c0      	nop			; (mov r8, r8)
     e6c:	46bd      	mov	sp, r7
     e6e:	bd80      	pop	{r7, pc}
     e70:	100108b0 	.word	0x100108b0
     e74:	10010862 	.word	0x10010862
     e78:	1001090c 	.word	0x1001090c
     e7c:	10010932 	.word	0x10010932
     e80:	00002019 	.word	0x00002019
     e84:	00000bb8 	.word	0x00000bb8
     e88:	100049b2 	.word	0x100049b2

00000e8c <Bt_PowerOnKeyRelease>:

void Bt_PowerOnKeyRelease(void)
{
     e8c:	b580      	push	{r7, lr}
     e8e:	af00      	add	r7, sp, #0
	if (gBRState.topState == BR_POWER_ON)
     e90:	4b0b      	ldr	r3, [pc, #44]	; (ec0 <Bt_PowerOnKeyRelease+0x34>)
     e92:	7e1b      	ldrb	r3, [r3, #24]
     e94:	2b04      	cmp	r3, #4
     e96:	d10f      	bne.n	eb8 <Bt_PowerOnKeyRelease+0x2c>
	{
		//Bt_CheckReconnectAction();
		if((HREAD(mem_tws_record_state)&0xf0) == 0x50){
     e98:	4b0a      	ldr	r3, [pc, #40]	; (ec4 <Bt_PowerOnKeyRelease+0x38>)
     e9a:	781b      	ldrb	r3, [r3, #0]
     e9c:	b2db      	uxtb	r3, r3
     e9e:	001a      	movs	r2, r3
     ea0:	23f0      	movs	r3, #240	; 0xf0
     ea2:	4013      	ands	r3, r2
     ea4:	2b50      	cmp	r3, #80	; 0x50
     ea6:	d102      	bne.n	eae <Bt_PowerOnKeyRelease+0x22>
			Bt_SndCmdStartReconTws();
     ea8:	f001 fbc6 	bl	2638 <Bt_SndCmdStartReconTws>
		else{
			VP_snd_voiceEvt(VP_POWERON);
			Bt_CheckReconnectAction();
		}
	}
}
     eac:	e004      	b.n	eb8 <Bt_PowerOnKeyRelease+0x2c>
		//Bt_CheckReconnectAction();
		if((HREAD(mem_tws_record_state)&0xf0) == 0x50){
			Bt_SndCmdStartReconTws();
		}
		else{
			VP_snd_voiceEvt(VP_POWERON);
     eae:	2000      	movs	r0, #0
     eb0:	f007 fd6c 	bl	898c <VP_snd_voiceEvt>
			Bt_CheckReconnectAction();
     eb4:	f001 fa20 	bl	22f8 <Bt_CheckReconnectAction>
		}
	}
}
     eb8:	46c0      	nop			; (mov r8, r8)
     eba:	46bd      	mov	sp, r7
     ebc:	bd80      	pop	{r7, pc}
     ebe:	46c0      	nop			; (mov r8, r8)
     ec0:	100108b0 	.word	0x100108b0
     ec4:	100049b2 	.word	0x100049b2

00000ec8 <Bt_EvtCallBack>:

void WDT_Kick(void);
void Bt_EvtCallBack(uint8_t len,uint8_t *dataPtr)
{	
     ec8:	b580      	push	{r7, lr}
     eca:	b084      	sub	sp, #16
     ecc:	af00      	add	r7, sp, #0
     ece:	0002      	movs	r2, r0
     ed0:	6039      	str	r1, [r7, #0]
     ed2:	1dfb      	adds	r3, r7, #7
     ed4:	701a      	strb	r2, [r3, #0]
	if (*dataPtr >BT_EVT_100MS_UINT)
     ed6:	683b      	ldr	r3, [r7, #0]
     ed8:	781b      	ldrb	r3, [r3, #0]
     eda:	2be0      	cmp	r3, #224	; 0xe0
     edc:	d908      	bls.n	ef0 <Bt_EvtCallBack+0x28>
	{
		Bt_100ms_timer((*dataPtr)&(0x0F));
     ede:	683b      	ldr	r3, [r7, #0]
     ee0:	781b      	ldrb	r3, [r3, #0]
     ee2:	220f      	movs	r2, #15
     ee4:	4013      	ands	r3, r2
     ee6:	b2db      	uxtb	r3, r3
     ee8:	0018      	movs	r0, r3
     eea:	f003 f92b 	bl	4144 <Bt_100ms_timer>
		return;
     eee:	e183      	b.n	11f8 <Bt_EvtCallBack+0x330>
	}

	DEBUG_LOG(LOG_LEVEL_CORE, "IPC" ,"Bt_EvtCallBack: 0x%04X", LOG_POINT_9001, *dataPtr);
     ef0:	46c0      	nop			; (mov r8, r8)
	DEBUG_LOG_2(LOG_LEVEL_CORE, "IPC" ,"Bt_EvtCallBack State Info: 0x%04X", LOG_POINT_9002, gBRState.topState, gBRState.secondState);
     ef2:	46c0      	nop			; (mov r8, r8)
	
	if (gBRState.topState <= BR_CHARGER_IN&&
     ef4:	4bc2      	ldr	r3, [pc, #776]	; (1200 <Bt_EvtCallBack+0x338>)
     ef6:	7e1b      	ldrb	r3, [r3, #24]
     ef8:	2b02      	cmp	r3, #2
     efa:	d80c      	bhi.n	f16 <Bt_EvtCallBack+0x4e>
		(*dataPtr != BT_EVT_RESET) &&(*dataPtr != BT_EVT_RESTART)
     efc:	683b      	ldr	r3, [r7, #0]
     efe:	781b      	ldrb	r3, [r3, #0]
	}

	DEBUG_LOG(LOG_LEVEL_CORE, "IPC" ,"Bt_EvtCallBack: 0x%04X", LOG_POINT_9001, *dataPtr);
	DEBUG_LOG_2(LOG_LEVEL_CORE, "IPC" ,"Bt_EvtCallBack State Info: 0x%04X", LOG_POINT_9002, gBRState.topState, gBRState.secondState);
	
	if (gBRState.topState <= BR_CHARGER_IN&&
     f00:	2b65      	cmp	r3, #101	; 0x65
     f02:	d008      	beq.n	f16 <Bt_EvtCallBack+0x4e>
		(*dataPtr != BT_EVT_RESET) &&(*dataPtr != BT_EVT_RESTART)
     f04:	683b      	ldr	r3, [r7, #0]
     f06:	781b      	ldrb	r3, [r3, #0]
     f08:	2b6a      	cmp	r3, #106	; 0x6a
     f0a:	d004      	beq.n	f16 <Bt_EvtCallBack+0x4e>
		&&  (*dataPtr != BT_EVT_CLOSE_ADAC) )
     f0c:	683b      	ldr	r3, [r7, #0]
     f0e:	781b      	ldrb	r3, [r3, #0]
     f10:	2b78      	cmp	r3, #120	; 0x78
     f12:	d000      	beq.n	f16 <Bt_EvtCallBack+0x4e>
     f14:	e169      	b.n	11ea <Bt_EvtCallBack+0x322>
		return;
	
	switch(*dataPtr)
     f16:	683b      	ldr	r3, [r7, #0]
     f18:	781b      	ldrb	r3, [r3, #0]
     f1a:	2b78      	cmp	r3, #120	; 0x78
     f1c:	d900      	bls.n	f20 <Bt_EvtCallBack+0x58>
     f1e:	e157      	b.n	11d0 <Bt_EvtCallBack+0x308>
     f20:	009a      	lsls	r2, r3, #2
     f22:	4bb8      	ldr	r3, [pc, #736]	; (1204 <Bt_EvtCallBack+0x33c>)
     f24:	18d3      	adds	r3, r2, r3
     f26:	681b      	ldr	r3, [r3, #0]
     f28:	469f      	mov	pc, r3
	{
		case BT_EVT_CLOSE_ADAC:
			//VP_snd_voiceEvt(VP_POPUP);
			Bt_ClosePaDelay();
     f2a:	f7ff ff3b 	bl	da4 <Bt_ClosePaDelay>
			break;
     f2e:	e15a      	b.n	11e6 <Bt_EvtCallBack+0x31e>
		case BT_EVT_MAX_POWER:
			SYS_ReleaseTimer(&gMAXPowerTimer);
     f30:	4bb5      	ldr	r3, [pc, #724]	; (1208 <Bt_EvtCallBack+0x340>)
     f32:	0018      	movs	r0, r3
     f34:	f003 f894 	bl	4060 <SYS_ReleaseTimer>
			break;
     f38:	e155      	b.n	11e6 <Bt_EvtCallBack+0x31e>
		case BT_EVT_EXIT_SNIFF:
			SYS_ReleaseTimer(&gSniffMulTimer);
     f3a:	4bb4      	ldr	r3, [pc, #720]	; (120c <Bt_EvtCallBack+0x344>)
     f3c:	0018      	movs	r0, r3
     f3e:	f003 f88f 	bl	4060 <SYS_ReleaseTimer>
			Bt_SndCmdDisableSniffMul();
     f42:	f001 fb49 	bl	25d8 <Bt_SndCmdDisableSniffMul>
			Bt_SetEnterSniffTimer();
     f46:	f7ff ff05 	bl	d54 <Bt_SetEnterSniffTimer>
			break;
     f4a:	e14c      	b.n	11e6 <Bt_EvtCallBack+0x31e>
		
		case BT_EVT_ENTER_SNIFF:
			SYS_ReleaseTimer(&gEnterSniffTimer);
     f4c:	4bb0      	ldr	r3, [pc, #704]	; (1210 <Bt_EvtCallBack+0x348>)
     f4e:	0018      	movs	r0, r3
     f50:	f003 f886 	bl	4060 <SYS_ReleaseTimer>
			Bt_SetSniffMulTimer();
     f54:	f7ff fedc 	bl	d10 <Bt_SetSniffMulTimer>
			break;
     f58:	e145      	b.n	11e6 <Bt_EvtCallBack+0x31e>
		
		case BT_EVT_RECONN_FAILED:
		case BT_EVT_RECONN_PAGE_TIMEOUT:
			if (gBRState.topState >= BR_POWER_ON)
     f5a:	4ba9      	ldr	r3, [pc, #676]	; (1200 <Bt_EvtCallBack+0x338>)
     f5c:	7e1b      	ldrb	r3, [r3, #24]
     f5e:	2b03      	cmp	r3, #3
     f60:	d800      	bhi.n	f64 <Bt_EvtCallBack+0x9c>
     f62:	e137      	b.n	11d4 <Bt_EvtCallBack+0x30c>
			{
				Bt_SndCmdStartDiscovery();
     f64:	f001 fa70 	bl	2448 <Bt_SndCmdStartDiscovery>
				if (gReconCount !=0)
     f68:	4baa      	ldr	r3, [pc, #680]	; (1214 <Bt_EvtCallBack+0x34c>)
     f6a:	781b      	ldrb	r3, [r3, #0]
     f6c:	2b00      	cmp	r3, #0
     f6e:	d00e      	beq.n	f8e <Bt_EvtCallBack+0xc6>
				{
					gReconCount--;
     f70:	4ba8      	ldr	r3, [pc, #672]	; (1214 <Bt_EvtCallBack+0x34c>)
     f72:	781b      	ldrb	r3, [r3, #0]
     f74:	3b01      	subs	r3, #1
     f76:	b2da      	uxtb	r2, r3
     f78:	4ba6      	ldr	r3, [pc, #664]	; (1214 <Bt_EvtCallBack+0x34c>)
     f7a:	701a      	strb	r2, [r3, #0]
					Bt_StartReconnectPhoneTimer();
     f7c:	f001 fb8e 	bl	269c <Bt_StartReconnectPhoneTimer>
					gReconWorkTimeout += 50;//add 2s
     f80:	4ba5      	ldr	r3, [pc, #660]	; (1218 <Bt_EvtCallBack+0x350>)
     f82:	881b      	ldrh	r3, [r3, #0]
     f84:	3332      	adds	r3, #50	; 0x32
     f86:	b29a      	uxth	r2, r3
     f88:	4ba3      	ldr	r3, [pc, #652]	; (1218 <Bt_EvtCallBack+0x350>)
     f8a:	801a      	strh	r2, [r3, #0]
				else
				{
					gReconWorkTimeout = DEFAULT_DISCOVERY_WORK_TIMEOUT;
				}
			}
			break;
     f8c:	e122      	b.n	11d4 <Bt_EvtCallBack+0x30c>
					Bt_StartReconnectPhoneTimer();
					gReconWorkTimeout += 50;//add 2s
				}
				else
				{
					gReconWorkTimeout = DEFAULT_DISCOVERY_WORK_TIMEOUT;
     f8e:	4ba2      	ldr	r3, [pc, #648]	; (1218 <Bt_EvtCallBack+0x350>)
     f90:	22fa      	movs	r2, #250	; 0xfa
     f92:	801a      	strh	r2, [r3, #0]
				}
			}
			break;
     f94:	e11e      	b.n	11d4 <Bt_EvtCallBack+0x30c>
		case BT_EVT_DEV_UPDATE_INFO:
			Bt_calReconInfoCRC();
     f96:	f001 f92b 	bl	21f0 <Bt_calReconInfoCRC>
			Bt_UpdateDeviceInfo();
     f9a:	f001 f98d 	bl	22b8 <Bt_UpdateDeviceInfo>
			break;
     f9e:	e122      	b.n	11e6 <Bt_EvtCallBack+0x31e>

		case BT_EVT_BB_DISCONNECTED:
			SYS_ReleaseTimer(&gMAXPowerTimer);
     fa0:	4b99      	ldr	r3, [pc, #612]	; (1208 <Bt_EvtCallBack+0x340>)
     fa2:	0018      	movs	r0, r3
     fa4:	f003 f85c 	bl	4060 <SYS_ReleaseTimer>
			SYS_ReleaseTimer(&gSniffMulTimer);
     fa8:	4b98      	ldr	r3, [pc, #608]	; (120c <Bt_EvtCallBack+0x344>)
     faa:	0018      	movs	r0, r3
     fac:	f003 f858 	bl	4060 <SYS_ReleaseTimer>
			SYS_ReleaseTimer(&gEnterSniffTimer);
     fb0:	4b97      	ldr	r3, [pc, #604]	; (1210 <Bt_EvtCallBack+0x348>)
     fb2:	0018      	movs	r0, r3
     fb4:	f003 f854 	bl	4060 <SYS_ReleaseTimer>
			SYS_ReleaseTimer(&gCONLedTimer);
     fb8:	4b98      	ldr	r3, [pc, #608]	; (121c <Bt_EvtCallBack+0x354>)
     fba:	0018      	movs	r0, r3
     fbc:	f003 f850 	bl	4060 <SYS_ReleaseTimer>
			if (gBRState.thirdlyState != BR_DISCOVERABLE)
     fc0:	4b8f      	ldr	r3, [pc, #572]	; (1200 <Bt_EvtCallBack+0x338>)
     fc2:	7e9b      	ldrb	r3, [r3, #26]
     fc4:	2b07      	cmp	r3, #7
     fc6:	d005      	beq.n	fd4 <Bt_EvtCallBack+0x10c>
			{	
				Bt_SetAutoPwroffTimer(AUTO_POWEROFF_IDLE,false,Bt_CBIdleTimeout);
     fc8:	4b95      	ldr	r3, [pc, #596]	; (1220 <Bt_EvtCallBack+0x358>)
     fca:	4896      	ldr	r0, [pc, #600]	; (1224 <Bt_EvtCallBack+0x35c>)
     fcc:	001a      	movs	r2, r3
     fce:	2100      	movs	r1, #0
     fd0:	f001 f880 	bl	20d4 <Bt_SetAutoPwroffTimer>
			}
			Lpm_unLockLpm(LINK_LPM_FLAG);
     fd4:	2010      	movs	r0, #16
     fd6:	f005 fe9d 	bl	6d14 <Lpm_unLockLpm>
			gBRState.secondState = BR_IDLE;
     fda:	4b89      	ldr	r3, [pc, #548]	; (1200 <Bt_EvtCallBack+0x338>)
     fdc:	2205      	movs	r2, #5
     fde:	765a      	strb	r2, [r3, #25]
			HWRITE(mem_rssi_low,0);
     fe0:	4b91      	ldr	r3, [pc, #580]	; (1228 <Bt_EvtCallBack+0x360>)
     fe2:	2200      	movs	r2, #0
     fe4:	701a      	strb	r2, [r3, #0]
			break;
     fe6:	e0fe      	b.n	11e6 <Bt_EvtCallBack+0x31e>
		case BT_EVT_BB_CONNECTED:
			gReconCount = 0;
     fe8:	4b8a      	ldr	r3, [pc, #552]	; (1214 <Bt_EvtCallBack+0x34c>)
     fea:	2200      	movs	r2, #0
     fec:	701a      	strb	r2, [r3, #0]
			Bt_SndCmdStopDiscovery();
     fee:	f001 fa33 	bl	2458 <Bt_SndCmdStopDiscovery>
		 	Bt_SndCmdWaitSlave();
     ff2:	f001 fae1 	bl	25b8 <Bt_SndCmdWaitSlave>
			break;
     ff6:	e0f6      	b.n	11e6 <Bt_EvtCallBack+0x31e>
		case BT_EVT_PROFILE_DISCONNECT:
			if (SYS_TimerisExist(&gChargerIn_timer))
     ff8:	4b8c      	ldr	r3, [pc, #560]	; (122c <Bt_EvtCallBack+0x364>)
     ffa:	0018      	movs	r0, r3
     ffc:	f002 ff58 	bl	3eb0 <SYS_TimerisExist>
    1000:	1e03      	subs	r3, r0, #0
    1002:	d000      	beq.n	1006 <Bt_EvtCallBack+0x13e>
    1004:	e0f3      	b.n	11ee <Bt_EvtCallBack+0x326>
				return;
			if (gBRState.topState >= BR_POWER_ON)
    1006:	4b7e      	ldr	r3, [pc, #504]	; (1200 <Bt_EvtCallBack+0x338>)
    1008:	7e1b      	ldrb	r3, [r3, #24]
    100a:	2b03      	cmp	r3, #3
    100c:	d800      	bhi.n	1010 <Bt_EvtCallBack+0x148>
    100e:	e0e3      	b.n	11d8 <Bt_EvtCallBack+0x310>
			{
				VP_snd_voiceEvt(VP_DISCONNECT);
    1010:	2003      	movs	r0, #3
    1012:	f007 fcbb 	bl	898c <VP_snd_voiceEvt>
				Bt_ProcessLedFunc(LED_EVT_DISCONNECTED);
    1016:	2003      	movs	r0, #3
    1018:	f006 f8a8 	bl	716c <Bt_ProcessLedFunc>
			}
			break;
    101c:	e0dc      	b.n	11d8 <Bt_EvtCallBack+0x310>
		case BT_EVT_ABNORMAL_DISCONNECT:
			if (SYS_TimerisExist(&gChargerIn_timer))
    101e:	4b83      	ldr	r3, [pc, #524]	; (122c <Bt_EvtCallBack+0x364>)
    1020:	0018      	movs	r0, r3
    1022:	f002 ff45 	bl	3eb0 <SYS_TimerisExist>
    1026:	1e03      	subs	r3, r0, #0
    1028:	d000      	beq.n	102c <Bt_EvtCallBack+0x164>
    102a:	e0e2      	b.n	11f2 <Bt_EvtCallBack+0x32a>
				return;
			gReconWorkTimeout = DEFAULT_DISCOVERY_WORK_TIMEOUT;
    102c:	4b7a      	ldr	r3, [pc, #488]	; (1218 <Bt_EvtCallBack+0x350>)
    102e:	22fa      	movs	r2, #250	; 0xfa
    1030:	801a      	strh	r2, [r3, #0]
			gReconCount = 6;
    1032:	4b78      	ldr	r3, [pc, #480]	; (1214 <Bt_EvtCallBack+0x34c>)
    1034:	2206      	movs	r2, #6
    1036:	701a      	strb	r2, [r3, #0]
			Bt_SndCmdReconnect();
    1038:	f001 fa18 	bl	246c <Bt_SndCmdReconnect>
			break;
    103c:	e0d3      	b.n	11e6 <Bt_EvtCallBack+0x31e>
		
		case BT_EVT_ENTER_DISCOVERABLE:
			if (SYS_TimerisExist(&gChargerIn_timer))
    103e:	4b7b      	ldr	r3, [pc, #492]	; (122c <Bt_EvtCallBack+0x364>)
    1040:	0018      	movs	r0, r3
    1042:	f002 ff35 	bl	3eb0 <SYS_TimerisExist>
    1046:	1e03      	subs	r3, r0, #0
    1048:	d002      	beq.n	1050 <Bt_EvtCallBack+0x188>
			{
				Bt_SndCmdStopDiscovery();
    104a:	f001 fa05 	bl	2458 <Bt_SndCmdStopDiscovery>
				return;
    104e:	e0d3      	b.n	11f8 <Bt_EvtCallBack+0x330>
			}
			if (gBRState.topState == BR_POWER_ON)
    1050:	4b6b      	ldr	r3, [pc, #428]	; (1200 <Bt_EvtCallBack+0x338>)
    1052:	7e1b      	ldrb	r3, [r3, #24]
    1054:	2b04      	cmp	r3, #4
    1056:	d000      	beq.n	105a <Bt_EvtCallBack+0x192>
    1058:	e0c0      	b.n	11dc <Bt_EvtCallBack+0x314>
			{
				Bt_SetAutoPwroffTimer(AUTO_POWEROFF_DISCOVERABLE,false,Bt_CBIdleTimeout);
    105a:	4a71      	ldr	r2, [pc, #452]	; (1220 <Bt_EvtCallBack+0x358>)
    105c:	2396      	movs	r3, #150	; 0x96
    105e:	011b      	lsls	r3, r3, #4
    1060:	2100      	movs	r1, #0
    1062:	0018      	movs	r0, r3
    1064:	f001 f836 	bl	20d4 <Bt_SetAutoPwroffTimer>
				Bt_ProcessLedFunc(LED_EVT_DISCOVERABLE);
    1068:	200b      	movs	r0, #11
    106a:	f006 f87f 	bl	716c <Bt_ProcessLedFunc>
				gBRState.thirdlyState = BR_DISCOVERABLE;
    106e:	4b64      	ldr	r3, [pc, #400]	; (1200 <Bt_EvtCallBack+0x338>)
    1070:	2207      	movs	r2, #7
    1072:	769a      	strb	r2, [r3, #26]
			}
			break;
    1074:	e0b2      	b.n	11dc <Bt_EvtCallBack+0x314>
		case BT_EVT_EXIT_DISCOVERABLE:
			gBRState.thirdlyState = BR_IDLE;
    1076:	4b62      	ldr	r3, [pc, #392]	; (1200 <Bt_EvtCallBack+0x338>)
    1078:	2205      	movs	r2, #5
    107a:	769a      	strb	r2, [r3, #26]
			break;
    107c:	e0b3      	b.n	11e6 <Bt_EvtCallBack+0x31e>
			
		case BT_EVT_ENC_CONNECTED:
			gReconCount = 0;
    107e:	4b65      	ldr	r3, [pc, #404]	; (1214 <Bt_EvtCallBack+0x34c>)
    1080:	2200      	movs	r2, #0
    1082:	701a      	strb	r2, [r3, #0]
			//Bt_SetAutoPwroffTimer(AUTO_POWEROFF_CONECTED,false,Bt_CBIdleTimeout);
			SYS_ReleaseTimer(&gBRState.autoPowerTimer);
    1084:	4b5e      	ldr	r3, [pc, #376]	; (1200 <Bt_EvtCallBack+0x338>)
    1086:	0018      	movs	r0, r3
    1088:	f002 ffea 	bl	4060 <SYS_ReleaseTimer>
			VP_snd_voiceEvt(VP_CONNECTED);
    108c:	2002      	movs	r0, #2
    108e:	f007 fc7d 	bl	898c <VP_snd_voiceEvt>
			Bt_ProcessLedFunc(LED_EVT_CONNECTED);
    1092:	2002      	movs	r0, #2
    1094:	f006 f86a 	bl	716c <Bt_ProcessLedFunc>
			Bt_ProcessLedFunc(LED_EVT_CONNECTED_IDLE);
    1098:	200c      	movs	r0, #12
    109a:	f006 f867 	bl	716c <Bt_ProcessLedFunc>
			gBRState.secondState = BR_CONNECTED;
    109e:	4b58      	ldr	r3, [pc, #352]	; (1200 <Bt_EvtCallBack+0x338>)
    10a0:	220a      	movs	r2, #10
    10a2:	765a      	strb	r2, [r3, #25]
			break;
    10a4:	e09f      	b.n	11e6 <Bt_EvtCallBack+0x31e>
		case BT_EVT_RESET:
			Bt_Reset();		
    10a6:	f7ff fe99 	bl	ddc <Bt_Reset>
			break;
    10aa:	e09c      	b.n	11e6 <Bt_EvtCallBack+0x31e>
		case BT_EVT_RESTART:
			Bt_Reset();
    10ac:	f7ff fe96 	bl	ddc <Bt_Reset>
			WDT_Kick();
    10b0:	f008 fdda 	bl	9c68 <WDT_Kick>
			SYS_delay_ms(500);
    10b4:	23fa      	movs	r3, #250	; 0xfa
    10b6:	005b      	lsls	r3, r3, #1
    10b8:	0018      	movs	r0, r3
    10ba:	f003 f867 	bl	418c <SYS_delay_ms>
			WDT_Kick();
    10be:	f008 fdd3 	bl	9c68 <WDT_Kick>
			SYS_delay_ms(500);
    10c2:	23fa      	movs	r3, #250	; 0xfa
    10c4:	005b      	lsls	r3, r3, #1
    10c6:	0018      	movs	r0, r3
    10c8:	f003 f860 	bl	418c <SYS_delay_ms>
			WDT_Kick();
    10cc:	f008 fdcc 	bl	9c68 <WDT_Kick>
			SYS_delay_ms(100);
    10d0:	2064      	movs	r0, #100	; 0x64
    10d2:	f003 f85b 	bl	418c <SYS_delay_ms>
			Bt_PowerOn();
    10d6:	f7ff fe9b 	bl	e10 <Bt_PowerOn>
			Bat_polling();
    10da:	f008 fafd 	bl	96d8 <Bat_polling>
			if(gBRState.topState != BR_CHARGER_IN  )
    10de:	4b48      	ldr	r3, [pc, #288]	; (1200 <Bt_EvtCallBack+0x338>)
    10e0:	7e1b      	ldrb	r3, [r3, #24]
    10e2:	2b02      	cmp	r3, #2
    10e4:	d100      	bne.n	10e8 <Bt_EvtCallBack+0x220>
    10e6:	e07b      	b.n	11e0 <Bt_EvtCallBack+0x318>
			{
				if((HREAD(mem_tws_record_state)&0xf0) == 0x50)
    10e8:	4b51      	ldr	r3, [pc, #324]	; (1230 <Bt_EvtCallBack+0x368>)
    10ea:	781b      	ldrb	r3, [r3, #0]
    10ec:	b2db      	uxtb	r3, r3
    10ee:	001a      	movs	r2, r3
    10f0:	23f0      	movs	r3, #240	; 0xf0
    10f2:	4013      	ands	r3, r2
    10f4:	2b50      	cmp	r3, #80	; 0x50
    10f6:	d102      	bne.n	10fe <Bt_EvtCallBack+0x236>
					Bt_SndCmdStartReconTws();
    10f8:	f001 fa9e 	bl	2638 <Bt_SndCmdStartReconTws>
				{
					VP_snd_voiceEvt(VP_POWERON);
					Bt_CheckReconnectAction();
				}
			}
			break;
    10fc:	e070      	b.n	11e0 <Bt_EvtCallBack+0x318>
			{
				if((HREAD(mem_tws_record_state)&0xf0) == 0x50)
					Bt_SndCmdStartReconTws();
				else
				{
					VP_snd_voiceEvt(VP_POWERON);
    10fe:	2000      	movs	r0, #0
    1100:	f007 fc44 	bl	898c <VP_snd_voiceEvt>
					Bt_CheckReconnectAction();
    1104:	f001 f8f8 	bl	22f8 <Bt_CheckReconnectAction>
				}
			}
			break;
    1108:	e06a      	b.n	11e0 <Bt_EvtCallBack+0x318>


		case BT_EVT_RECONNECT_RSP:
			Bt_ProcessLedFunc(LED_EVT_PAGING);
    110a:	200a      	movs	r0, #10
    110c:	f006 f82e 	bl	716c <Bt_ProcessLedFunc>
			break;
    1110:	e069      	b.n	11e6 <Bt_EvtCallBack+0x31e>
		case BT_EVT_WAKEUP:
			VP_ADAC_reg_init();
    1112:	f008 f8e7 	bl	92e4 <VP_ADAC_reg_init>
			Bat_reInit();
    1116:	f008 f9eb 	bl	94f0 <Bat_reInit>
			SysTick_Config(SYSTEM_CLOCK/100); //each  systick interrupt is 10ms
    111a:	4b46      	ldr	r3, [pc, #280]	; (1234 <Bt_EvtCallBack+0x36c>)
    111c:	0018      	movs	r0, r3
    111e:	f7ff fd5d 	bl	bdc <SysTick_Config>
			keypad_check_keypress(0);
    1122:	2000      	movs	r0, #0
    1124:	f005 f8be 	bl	62a4 <keypad_check_keypress>
  \details Enables IRQ interrupts by clearing the I-bit in the CPSR.
           Can only be executed in Privileged modes.
 */
__attribute__( ( always_inline ) ) __STATIC_INLINE void __enable_irq(void)
{
  __ASM volatile ("cpsie i" : : : "memory");
    1128:	b662      	cpsie	i
			OS_EXIT_CRITICAL();
			break;
    112a:	e05c      	b.n	11e6 <Bt_EvtCallBack+0x31e>
		case BT_EVT_ALL_PROFILE_CONNECT:
			Bt_SndCmdWaitSlave();
    112c:	f001 fa44 	bl	25b8 <Bt_SndCmdWaitSlave>
			break;
    1130:	e059      	b.n	11e6 <Bt_EvtCallBack+0x31e>
		//case BT_EVT_RESET_AUTO_TIMER:
		//	Bt_ResetAutoPwroffTimer();
		//	break;
			
		case BT_EVT_HFP_DISCONNECTED:
			BT_twsCheckAndUpdateProfileAfterProfileDisconnect();
    1132:	f001 fc2f 	bl	2994 <BT_twsCheckAndUpdateProfileAfterProfileDisconnect>
			break;
    1136:	e056      	b.n	11e6 <Bt_EvtCallBack+0x31e>
		case BT_EVT_HFP_UP_TO_MAX_VLM:
			//VP_snd_voiceEvt(VP_VLM_MAX);
			break;
		case BT_EVT_PHONE_NUM:
			{
				if (!VP_Check_Queue_Is_empty())
    1138:	f008 f8b0 	bl	929c <VP_Check_Queue_Is_empty>
    113c:	0003      	movs	r3, r0
    113e:	001a      	movs	r2, r3
    1140:	2301      	movs	r3, #1
    1142:	4053      	eors	r3, r2
    1144:	b2db      	uxtb	r3, r3
    1146:	2b00      	cmp	r3, #0
    1148:	d155      	bne.n	11f6 <Bt_EvtCallBack+0x32e>
					return;
				uint8_t temp = HREAD(mem_phone_num_len);
    114a:	4a3b      	ldr	r2, [pc, #236]	; (1238 <Bt_EvtCallBack+0x370>)
    114c:	230e      	movs	r3, #14
    114e:	18fb      	adds	r3, r7, r3
    1150:	7812      	ldrb	r2, [r2, #0]
    1152:	701a      	strb	r2, [r3, #0]
				for (uint8_t i=0;i<temp;i++)
    1154:	230f      	movs	r3, #15
    1156:	18fb      	adds	r3, r7, r3
    1158:	2200      	movs	r2, #0
    115a:	701a      	strb	r2, [r3, #0]
    115c:	e023      	b.n	11a6 <Bt_EvtCallBack+0x2de>
				{
					uint8_t num=HREAD((mem_phone_number+i));
    115e:	230f      	movs	r3, #15
    1160:	18fb      	adds	r3, r7, r3
    1162:	781b      	ldrb	r3, [r3, #0]
    1164:	4a35      	ldr	r2, [pc, #212]	; (123c <Bt_EvtCallBack+0x374>)
    1166:	4694      	mov	ip, r2
    1168:	4463      	add	r3, ip
    116a:	2280      	movs	r2, #128	; 0x80
    116c:	0552      	lsls	r2, r2, #21
    116e:	4313      	orrs	r3, r2
    1170:	001a      	movs	r2, r3
    1172:	230d      	movs	r3, #13
    1174:	18fb      	adds	r3, r7, r3
    1176:	7812      	ldrb	r2, [r2, #0]
    1178:	701a      	strb	r2, [r3, #0]
					if (num <0 || num >9)
    117a:	230d      	movs	r3, #13
    117c:	18fb      	adds	r3, r7, r3
    117e:	781b      	ldrb	r3, [r3, #0]
    1180:	2b09      	cmp	r3, #9
    1182:	d901      	bls.n	1188 <Bt_EvtCallBack+0x2c0>
					{
						error_handle();
    1184:	f005 fda2 	bl	6ccc <error_handle>
					}
					VP_snd_voiceEvt(VP_DIGITAL+num);
    1188:	230d      	movs	r3, #13
    118a:	18fb      	adds	r3, r7, r3
    118c:	781b      	ldrb	r3, [r3, #0]
    118e:	3307      	adds	r3, #7
    1190:	b2db      	uxtb	r3, r3
    1192:	0018      	movs	r0, r3
    1194:	f007 fbfa 	bl	898c <VP_snd_voiceEvt>
		case BT_EVT_PHONE_NUM:
			{
				if (!VP_Check_Queue_Is_empty())
					return;
				uint8_t temp = HREAD(mem_phone_num_len);
				for (uint8_t i=0;i<temp;i++)
    1198:	230f      	movs	r3, #15
    119a:	18fb      	adds	r3, r7, r3
    119c:	781a      	ldrb	r2, [r3, #0]
    119e:	230f      	movs	r3, #15
    11a0:	18fb      	adds	r3, r7, r3
    11a2:	3201      	adds	r2, #1
    11a4:	701a      	strb	r2, [r3, #0]
    11a6:	230f      	movs	r3, #15
    11a8:	18fa      	adds	r2, r7, r3
    11aa:	230e      	movs	r3, #14
    11ac:	18fb      	adds	r3, r7, r3
    11ae:	7812      	ldrb	r2, [r2, #0]
    11b0:	781b      	ldrb	r3, [r3, #0]
    11b2:	429a      	cmp	r2, r3
    11b4:	d3d3      	bcc.n	115e <Bt_EvtCallBack+0x296>
						error_handle();
					}
					VP_snd_voiceEvt(VP_DIGITAL+num);
				}
			}
			break;
    11b6:	e016      	b.n	11e6 <Bt_EvtCallBack+0x31e>
		case BT_EVT_LE_CONNECTED:
			//Bt_SetAutoPwroffTimer(AUTO_POWEROFF_CONECTED,false,Bt_CBIdleTimeout);
			SYS_ReleaseTimer(&gBRState.autoPowerTimer);
    11b8:	4b11      	ldr	r3, [pc, #68]	; (1200 <Bt_EvtCallBack+0x338>)
    11ba:	0018      	movs	r0, r3
    11bc:	f002 ff50 	bl	4060 <SYS_ReleaseTimer>
			break;
    11c0:	e011      	b.n	11e6 <Bt_EvtCallBack+0x31e>
		case BT_EVT_LE_DISCONNECTED:
			if (gBRState.thirdlyState== BR_DISCOVERABLE)	
    11c2:	4b0f      	ldr	r3, [pc, #60]	; (1200 <Bt_EvtCallBack+0x338>)
    11c4:	7e9b      	ldrb	r3, [r3, #26]
    11c6:	2b07      	cmp	r3, #7
    11c8:	d10c      	bne.n	11e4 <Bt_EvtCallBack+0x31c>
				Bt_SndCmdStartDiscovery();
    11ca:	f001 f93d 	bl	2448 <Bt_SndCmdStartDiscovery>
			break;
    11ce:	e009      	b.n	11e4 <Bt_EvtCallBack+0x31c>
		default:
			break;
    11d0:	46c0      	nop			; (mov r8, r8)
    11d2:	e008      	b.n	11e6 <Bt_EvtCallBack+0x31e>
				else
				{
					gReconWorkTimeout = DEFAULT_DISCOVERY_WORK_TIMEOUT;
				}
			}
			break;
    11d4:	46c0      	nop			; (mov r8, r8)
    11d6:	e006      	b.n	11e6 <Bt_EvtCallBack+0x31e>
			if (gBRState.topState >= BR_POWER_ON)
			{
				VP_snd_voiceEvt(VP_DISCONNECT);
				Bt_ProcessLedFunc(LED_EVT_DISCONNECTED);
			}
			break;
    11d8:	46c0      	nop			; (mov r8, r8)
    11da:	e004      	b.n	11e6 <Bt_EvtCallBack+0x31e>
			{
				Bt_SetAutoPwroffTimer(AUTO_POWEROFF_DISCOVERABLE,false,Bt_CBIdleTimeout);
				Bt_ProcessLedFunc(LED_EVT_DISCOVERABLE);
				gBRState.thirdlyState = BR_DISCOVERABLE;
			}
			break;
    11dc:	46c0      	nop			; (mov r8, r8)
    11de:	e002      	b.n	11e6 <Bt_EvtCallBack+0x31e>
				{
					VP_snd_voiceEvt(VP_POWERON);
					Bt_CheckReconnectAction();
				}
			}
			break;
    11e0:	46c0      	nop			; (mov r8, r8)
    11e2:	e000      	b.n	11e6 <Bt_EvtCallBack+0x31e>
			SYS_ReleaseTimer(&gBRState.autoPowerTimer);
			break;
		case BT_EVT_LE_DISCONNECTED:
			if (gBRState.thirdlyState== BR_DISCOVERABLE)	
				Bt_SndCmdStartDiscovery();
			break;
    11e4:	46c0      	nop			; (mov r8, r8)
		default:
			break;
	}

	return;
    11e6:	46c0      	nop			; (mov r8, r8)
    11e8:	e006      	b.n	11f8 <Bt_EvtCallBack+0x330>
	DEBUG_LOG_2(LOG_LEVEL_CORE, "IPC" ,"Bt_EvtCallBack State Info: 0x%04X", LOG_POINT_9002, gBRState.topState, gBRState.secondState);
	
	if (gBRState.topState <= BR_CHARGER_IN&&
		(*dataPtr != BT_EVT_RESET) &&(*dataPtr != BT_EVT_RESTART)
		&&  (*dataPtr != BT_EVT_CLOSE_ADAC) )
		return;
    11ea:	46c0      	nop			; (mov r8, r8)
    11ec:	e004      	b.n	11f8 <Bt_EvtCallBack+0x330>
			Bt_SndCmdStopDiscovery();
		 	Bt_SndCmdWaitSlave();
			break;
		case BT_EVT_PROFILE_DISCONNECT:
			if (SYS_TimerisExist(&gChargerIn_timer))
				return;
    11ee:	46c0      	nop			; (mov r8, r8)
    11f0:	e002      	b.n	11f8 <Bt_EvtCallBack+0x330>
				Bt_ProcessLedFunc(LED_EVT_DISCONNECTED);
			}
			break;
		case BT_EVT_ABNORMAL_DISCONNECT:
			if (SYS_TimerisExist(&gChargerIn_timer))
				return;
    11f2:	46c0      	nop			; (mov r8, r8)
    11f4:	e000      	b.n	11f8 <Bt_EvtCallBack+0x330>
			//VP_snd_voiceEvt(VP_VLM_MAX);
			break;
		case BT_EVT_PHONE_NUM:
			{
				if (!VP_Check_Queue_Is_empty())
					return;
    11f6:	46c0      	nop			; (mov r8, r8)
		default:
			break;
	}

	return;
}
    11f8:	46bd      	mov	sp, r7
    11fa:	b004      	add	sp, #16
    11fc:	bd80      	pop	{r7, pc}
    11fe:	46c0      	nop			; (mov r8, r8)
    1200:	100108b0 	.word	0x100108b0
    1204:	0000b474 	.word	0x0000b474
    1208:	1001080c 	.word	0x1001080c
    120c:	10010868 	.word	0x10010868
    1210:	100107f0 	.word	0x100107f0
    1214:	10010824 	.word	0x10010824
    1218:	10010932 	.word	0x10010932
    121c:	100108f4 	.word	0x100108f4
    1220:	00002019 	.word	0x00002019
    1224:	00000bb8 	.word	0x00000bb8
    1228:	10004b3d 	.word	0x10004b3d
    122c:	10010c98 	.word	0x10010c98
    1230:	100049b2 	.word	0x100049b2
    1234:	00075300 	.word	0x00075300
    1238:	100002da 	.word	0x100002da
    123c:	000002db 	.word	0x000002db

00001240 <Bt_SndCmdBLE>:
uint32_t OTA_datasum,OTA_datalen;

//uint iii;

void Bt_SndCmdBLE( uint8_t *data,uint8_t len)
{
    1240:	b580      	push	{r7, lr}
    1242:	b082      	sub	sp, #8
    1244:	af00      	add	r7, sp, #0
    1246:	6078      	str	r0, [r7, #4]
    1248:	000a      	movs	r2, r1
    124a:	1cfb      	adds	r3, r7, #3
    124c:	701a      	strb	r2, [r3, #0]
	IPC_TxCommon(IPC_TYPE_BLE,data,len);
    124e:	1cfb      	adds	r3, r7, #3
    1250:	781a      	ldrb	r2, [r3, #0]
    1252:	687b      	ldr	r3, [r7, #4]
    1254:	0019      	movs	r1, r3
    1256:	2005      	movs	r0, #5
    1258:	f005 fb46 	bl	68e8 <IPC_TxCommon>
}
    125c:	46c0      	nop			; (mov r8, r8)
    125e:	46bd      	mov	sp, r7
    1260:	b002      	add	sp, #8
    1262:	bd80      	pop	{r7, pc}

00001264 <Bt_SndCmdSPP>:


void Bt_SndCmdSPP(uint8_t *data,uint8_t len)
{
    1264:	b580      	push	{r7, lr}
    1266:	b082      	sub	sp, #8
    1268:	af00      	add	r7, sp, #0
    126a:	6078      	str	r0, [r7, #4]
    126c:	000a      	movs	r2, r1
    126e:	1cfb      	adds	r3, r7, #3
    1270:	701a      	strb	r2, [r3, #0]
	IPC_TxCommon(IPC_TYPE_SPP,data,len);
    1272:	1cfb      	adds	r3, r7, #3
    1274:	781a      	ldrb	r2, [r3, #0]
    1276:	687b      	ldr	r3, [r7, #4]
    1278:	0019      	movs	r1, r3
    127a:	2004      	movs	r0, #4
    127c:	f005 fb34 	bl	68e8 <IPC_TxCommon>
}
    1280:	46c0      	nop			; (mov r8, r8)
    1282:	46bd      	mov	sp, r7
    1284:	b002      	add	sp, #8
    1286:	bd80      	pop	{r7, pc}

00001288 <OTA_Init>:

void OTA_Init()
{
    1288:	b580      	push	{r7, lr}
    128a:	af00      	add	r7, sp, #0
 		OTA_packetid = 0;
    128c:	4b07      	ldr	r3, [pc, #28]	; (12ac <OTA_Init+0x24>)
    128e:	2200      	movs	r2, #0
    1290:	801a      	strh	r2, [r3, #0]
 		OTA_datasum = 0;
    1292:	4b07      	ldr	r3, [pc, #28]	; (12b0 <OTA_Init+0x28>)
    1294:	2200      	movs	r2, #0
    1296:	601a      	str	r2, [r3, #0]
 		OTA_flash_start_addr = 0;
    1298:	4b06      	ldr	r3, [pc, #24]	; (12b4 <OTA_Init+0x2c>)
    129a:	2200      	movs	r2, #0
    129c:	601a      	str	r2, [r3, #0]
 		OTA_datalen = 0;
    129e:	4b06      	ldr	r3, [pc, #24]	; (12b8 <OTA_Init+0x30>)
    12a0:	2200      	movs	r2, #0
    12a2:	601a      	str	r2, [r3, #0]
}
    12a4:	46c0      	nop			; (mov r8, r8)
    12a6:	46bd      	mov	sp, r7
    12a8:	bd80      	pop	{r7, pc}
    12aa:	46c0      	nop			; (mov r8, r8)
    12ac:	100108d0 	.word	0x100108d0
    12b0:	10010828 	.word	0x10010828
    12b4:	1001092c 	.word	0x1001092c
    12b8:	10010808 	.word	0x10010808

000012bc <Bt_CBChangeCode>:

void Bt_CBChangeCode()
{
    12bc:	b580      	push	{r7, lr}
    12be:	b082      	sub	sp, #8
    12c0:	af00      	add	r7, sp, #0
	uint8_t datatemp[3]={0};
    12c2:	1d3b      	adds	r3, r7, #4
    12c4:	0018      	movs	r0, r3
    12c6:	2303      	movs	r3, #3
    12c8:	001a      	movs	r2, r3
    12ca:	2100      	movs	r1, #0
    12cc:	f00a f848 	bl	b360 <memset>
	if(OTA_flash_start_addr != CODE_START_FLASHADDR1 
    12d0:	4b1c      	ldr	r3, [pc, #112]	; (1344 <Bt_CBChangeCode+0x88>)
    12d2:	681b      	ldr	r3, [r3, #0]
    12d4:	4a1c      	ldr	r2, [pc, #112]	; (1348 <Bt_CBChangeCode+0x8c>)
    12d6:	4293      	cmp	r3, r2
    12d8:	d004      	beq.n	12e4 <Bt_CBChangeCode+0x28>
	 	&& OTA_flash_start_addr!= CODE_START_FLASHADDR2)
    12da:	4b1a      	ldr	r3, [pc, #104]	; (1344 <Bt_CBChangeCode+0x88>)
    12dc:	681b      	ldr	r3, [r3, #0]
    12de:	4a1b      	ldr	r2, [pc, #108]	; (134c <Bt_CBChangeCode+0x90>)
    12e0:	4293      	cmp	r3, r2
    12e2:	d12a      	bne.n	133a <Bt_CBChangeCode+0x7e>
	 	return;
	 
//	temp = REVERSE_3BYTE_DEFINE(OTA_flash_start_addr);
	QSPI_Init();
    12e4:	f007 fab8 	bl	8858 <QSPI_Init>
  \details Disables IRQ interrupts by setting the I-bit in the CPSR.
  Can only be executed in Privileged modes.
 */
__attribute__( ( always_inline ) ) __STATIC_INLINE void __disable_irq(void)
{
  __ASM volatile ("cpsid i" : : : "memory");
    12e8:	b672      	cpsid	i
	OS_ENTER_CRITICAL();
	SetLockQSPI( );
    12ea:	f006 fc89 	bl	7c00 <SetLockQSPI>
//	setRamType(XRAM);
	datatemp[0] = OTA_flash_start_addr>>16;
    12ee:	4b15      	ldr	r3, [pc, #84]	; (1344 <Bt_CBChangeCode+0x88>)
    12f0:	681b      	ldr	r3, [r3, #0]
    12f2:	0c1b      	lsrs	r3, r3, #16
    12f4:	b2da      	uxtb	r2, r3
    12f6:	1d3b      	adds	r3, r7, #4
    12f8:	701a      	strb	r2, [r3, #0]
	datatemp[1] = (OTA_flash_start_addr&0xff00)>>8;
    12fa:	4b12      	ldr	r3, [pc, #72]	; (1344 <Bt_CBChangeCode+0x88>)
    12fc:	681b      	ldr	r3, [r3, #0]
    12fe:	0a1b      	lsrs	r3, r3, #8
    1300:	b2da      	uxtb	r2, r3
    1302:	1d3b      	adds	r3, r7, #4
    1304:	705a      	strb	r2, [r3, #1]
	datatemp[2] = OTA_flash_start_addr;
    1306:	4b0f      	ldr	r3, [pc, #60]	; (1344 <Bt_CBChangeCode+0x88>)
    1308:	681b      	ldr	r3, [r3, #0]
    130a:	b2da      	uxtb	r2, r3
    130c:	1d3b      	adds	r3, r7, #4
    130e:	709a      	strb	r2, [r3, #2]
	QSPI_SectorEraseFlash(DEVICE_INFO_BASE);
    1310:	23fe      	movs	r3, #254	; 0xfe
    1312:	02db      	lsls	r3, r3, #11
    1314:	0018      	movs	r0, r3
    1316:	f007 f983 	bl	8620 <QSPI_SectorEraseFlash>
	QSPI_SectorEraseFlash(0);
    131a:	2000      	movs	r0, #0
    131c:	f007 f980 	bl	8620 <QSPI_SectorEraseFlash>
	QSPI_WriteFlashData(0,3,datatemp);
    1320:	1d3b      	adds	r3, r7, #4
    1322:	001a      	movs	r2, r3
    1324:	2103      	movs	r1, #3
    1326:	2000      	movs	r0, #0
    1328:	f006 ff8a 	bl	8240 <QSPI_WriteFlashData>
	SetReleaseQSPI( );
    132c:	f006 fc72 	bl	7c14 <SetReleaseQSPI>
  \details Enables IRQ interrupts by clearing the I-bit in the CPSR.
           Can only be executed in Privileged modes.
 */
__attribute__( ( always_inline ) ) __STATIC_INLINE void __enable_irq(void)
{
  __ASM volatile ("cpsie i" : : : "memory");
    1330:	b662      	cpsie	i
	OS_EXIT_CRITICAL();
	HWRITE(CORE_RESET,0x03);
    1332:	4b07      	ldr	r3, [pc, #28]	; (1350 <Bt_CBChangeCode+0x94>)
    1334:	2203      	movs	r2, #3
    1336:	701a      	strb	r2, [r3, #0]
	while(1);
    1338:	e7fe      	b.n	1338 <Bt_CBChangeCode+0x7c>
void Bt_CBChangeCode()
{
	uint8_t datatemp[3]={0};
	if(OTA_flash_start_addr != CODE_START_FLASHADDR1 
	 	&& OTA_flash_start_addr!= CODE_START_FLASHADDR2)
	 	return;
    133a:	46c0      	nop			; (mov r8, r8)
	QSPI_WriteFlashData(0,3,datatemp);
	SetReleaseQSPI( );
	OS_EXIT_CRITICAL();
	HWRITE(CORE_RESET,0x03);
	while(1);
}
    133c:	46bd      	mov	sp, r7
    133e:	b002      	add	sp, #8
    1340:	bd80      	pop	{r7, pc}
    1342:	46c0      	nop			; (mov r8, r8)
    1344:	1001092c 	.word	0x1001092c
    1348:	00001003 	.word	0x00001003
    134c:	00018003 	.word	0x00018003
    1350:	10008010 	.word	0x10008010

00001354 <Bt_SPPCallBack>:


void Bt_SPPCallBack(uint8_t len,uint8_t *dataPtr)
{
    1354:	b580      	push	{r7, lr}
    1356:	b08e      	sub	sp, #56	; 0x38
    1358:	af00      	add	r7, sp, #0
    135a:	0002      	movs	r2, r0
    135c:	6039      	str	r1, [r7, #0]
    135e:	1dfb      	adds	r3, r7, #7
    1360:	701a      	strb	r2, [r3, #0]
	uint8_t j=0,data[5]={0},datatemp[32]={0};
    1362:	2337      	movs	r3, #55	; 0x37
    1364:	18fb      	adds	r3, r7, r3
    1366:	2200      	movs	r2, #0
    1368:	701a      	strb	r2, [r3, #0]
    136a:	2328      	movs	r3, #40	; 0x28
    136c:	18fb      	adds	r3, r7, r3
    136e:	0018      	movs	r0, r3
    1370:	2305      	movs	r3, #5
    1372:	001a      	movs	r2, r3
    1374:	2100      	movs	r1, #0
    1376:	f009 fff3 	bl	b360 <memset>
    137a:	2308      	movs	r3, #8
    137c:	18fb      	adds	r3, r7, r3
    137e:	0018      	movs	r0, r3
    1380:	2320      	movs	r3, #32
    1382:	001a      	movs	r2, r3
    1384:	2100      	movs	r1, #0
    1386:	f009 ffeb 	bl	b360 <memset>
	uint32_t i;
//	uint16_t temp;
//	testFlag = *dataPtr;
	QSPI_Init();
    138a:	f007 fa65 	bl	8858 <QSPI_Init>
  \details Disables IRQ interrupts by setting the I-bit in the CPSR.
  Can only be executed in Privileged modes.
 */
__attribute__( ( always_inline ) ) __STATIC_INLINE void __disable_irq(void)
{
  __ASM volatile ("cpsid i" : : : "memory");
    138e:	b672      	cpsid	i
	OS_ENTER_CRITICAL();
	setRamType(MRAM);
    1390:	2000      	movs	r0, #0
    1392:	f006 fc49 	bl	7c28 <setRamType>
	SetLockQSPI( );
    1396:	f006 fc33 	bl	7c00 <SetLockQSPI>
	DEBUG_LOG(LOG_LEVEL_CORE, "IPC" ,"Bt_SPPCallBack: 0x%04X", LOG_POINT_9004, *(dataPtr));
    139a:	46c0      	nop			; (mov r8, r8)
	switch(*dataPtr)
    139c:	683b      	ldr	r3, [r7, #0]
    139e:	781b      	ldrb	r3, [r3, #0]
    13a0:	2bc1      	cmp	r3, #193	; 0xc1
    13a2:	d065      	beq.n	1470 <Bt_SPPCallBack+0x11c>
    13a4:	dc02      	bgt.n	13ac <Bt_SPPCallBack+0x58>
    13a6:	2bc0      	cmp	r3, #192	; 0xc0
    13a8:	d007      	beq.n	13ba <Bt_SPPCallBack+0x66>
    13aa:	e190      	b.n	16ce <Bt_SPPCallBack+0x37a>
    13ac:	2bc2      	cmp	r3, #194	; 0xc2
    13ae:	d100      	bne.n	13b2 <Bt_SPPCallBack+0x5e>
    13b0:	e0c4      	b.n	153c <Bt_SPPCallBack+0x1e8>
    13b2:	2bff      	cmp	r3, #255	; 0xff
    13b4:	d100      	bne.n	13b8 <Bt_SPPCallBack+0x64>
    13b6:	e183      	b.n	16c0 <Bt_SPPCallBack+0x36c>
    13b8:	e189      	b.n	16ce <Bt_SPPCallBack+0x37a>
	{
 		case OTA_EVT_START:
   			if(len != 1)
    13ba:	1dfb      	adds	r3, r7, #7
    13bc:	781b      	ldrb	r3, [r3, #0]
    13be:	2b01      	cmp	r3, #1
    13c0:	d000      	beq.n	13c4 <Bt_SPPCallBack+0x70>
    13c2:	e187      	b.n	16d4 <Bt_SPPCallBack+0x380>
 				break;
			OTA_Init();	
    13c4:	f7ff ff60 	bl	1288 <OTA_Init>
			QSPI_ReadFlashData(0,3,(uint8_t *)(&OTA_flash_start_addr));
    13c8:	4bca      	ldr	r3, [pc, #808]	; (16f4 <Bt_SPPCallBack+0x3a0>)
    13ca:	001a      	movs	r2, r3
    13cc:	2103      	movs	r1, #3
    13ce:	2000      	movs	r0, #0
    13d0:	f006 fd56 	bl	7e80 <QSPI_ReadFlashData>
	 		if(CODE_START_FLASHADDR1 == REVERSE_3BYTE_DEFINE(OTA_flash_start_addr))
    13d4:	4bc7      	ldr	r3, [pc, #796]	; (16f4 <Bt_SPPCallBack+0x3a0>)
    13d6:	681b      	ldr	r3, [r3, #0]
    13d8:	0c1a      	lsrs	r2, r3, #16
    13da:	4bc6      	ldr	r3, [pc, #792]	; (16f4 <Bt_SPPCallBack+0x3a0>)
    13dc:	6819      	ldr	r1, [r3, #0]
    13de:	23ff      	movs	r3, #255	; 0xff
    13e0:	021b      	lsls	r3, r3, #8
    13e2:	400b      	ands	r3, r1
    13e4:	18d2      	adds	r2, r2, r3
    13e6:	4bc3      	ldr	r3, [pc, #780]	; (16f4 <Bt_SPPCallBack+0x3a0>)
    13e8:	681b      	ldr	r3, [r3, #0]
    13ea:	0419      	lsls	r1, r3, #16
    13ec:	23ff      	movs	r3, #255	; 0xff
    13ee:	041b      	lsls	r3, r3, #16
    13f0:	400b      	ands	r3, r1
    13f2:	18d3      	adds	r3, r2, r3
    13f4:	4ac0      	ldr	r2, [pc, #768]	; (16f8 <Bt_SPPCallBack+0x3a4>)
    13f6:	4293      	cmp	r3, r2
    13f8:	d103      	bne.n	1402 <Bt_SPPCallBack+0xae>
 				OTA_flash_start_addr = CODE_START_FLASHADDR2;
    13fa:	4bbe      	ldr	r3, [pc, #760]	; (16f4 <Bt_SPPCallBack+0x3a0>)
    13fc:	4abf      	ldr	r2, [pc, #764]	; (16fc <Bt_SPPCallBack+0x3a8>)
    13fe:	601a      	str	r2, [r3, #0]
    1400:	e016      	b.n	1430 <Bt_SPPCallBack+0xdc>
 			else if(CODE_START_FLASHADDR2 == REVERSE_3BYTE_DEFINE(OTA_flash_start_addr))
    1402:	4bbc      	ldr	r3, [pc, #752]	; (16f4 <Bt_SPPCallBack+0x3a0>)
    1404:	681b      	ldr	r3, [r3, #0]
    1406:	0c1a      	lsrs	r2, r3, #16
    1408:	4bba      	ldr	r3, [pc, #744]	; (16f4 <Bt_SPPCallBack+0x3a0>)
    140a:	6819      	ldr	r1, [r3, #0]
    140c:	23ff      	movs	r3, #255	; 0xff
    140e:	021b      	lsls	r3, r3, #8
    1410:	400b      	ands	r3, r1
    1412:	18d2      	adds	r2, r2, r3
    1414:	4bb7      	ldr	r3, [pc, #732]	; (16f4 <Bt_SPPCallBack+0x3a0>)
    1416:	681b      	ldr	r3, [r3, #0]
    1418:	0419      	lsls	r1, r3, #16
    141a:	23ff      	movs	r3, #255	; 0xff
    141c:	041b      	lsls	r3, r3, #16
    141e:	400b      	ands	r3, r1
    1420:	18d3      	adds	r3, r2, r3
    1422:	4ab6      	ldr	r2, [pc, #728]	; (16fc <Bt_SPPCallBack+0x3a8>)
    1424:	4293      	cmp	r3, r2
    1426:	d000      	beq.n	142a <Bt_SPPCallBack+0xd6>
    1428:	e156      	b.n	16d8 <Bt_SPPCallBack+0x384>
  					OTA_flash_start_addr = CODE_START_FLASHADDR1;
    142a:	4bb2      	ldr	r3, [pc, #712]	; (16f4 <Bt_SPPCallBack+0x3a0>)
    142c:	4ab2      	ldr	r2, [pc, #712]	; (16f8 <Bt_SPPCallBack+0x3a4>)
    142e:	601a      	str	r2, [r3, #0]
  				else
  					break;	
  					
  			for(i=0;i<0x17;i++)
    1430:	2300      	movs	r3, #0
    1432:	633b      	str	r3, [r7, #48]	; 0x30
    1434:	e00a      	b.n	144c <Bt_SPPCallBack+0xf8>
  				QSPI_SectorEraseFlash(OTA_flash_start_addr+(i<<12));	
    1436:	6b3b      	ldr	r3, [r7, #48]	; 0x30
    1438:	031a      	lsls	r2, r3, #12
    143a:	4bae      	ldr	r3, [pc, #696]	; (16f4 <Bt_SPPCallBack+0x3a0>)
    143c:	681b      	ldr	r3, [r3, #0]
    143e:	18d3      	adds	r3, r2, r3
    1440:	0018      	movs	r0, r3
    1442:	f007 f8ed 	bl	8620 <QSPI_SectorEraseFlash>
 			else if(CODE_START_FLASHADDR2 == REVERSE_3BYTE_DEFINE(OTA_flash_start_addr))
  					OTA_flash_start_addr = CODE_START_FLASHADDR1;
  				else
  					break;	
  					
  			for(i=0;i<0x17;i++)
    1446:	6b3b      	ldr	r3, [r7, #48]	; 0x30
    1448:	3301      	adds	r3, #1
    144a:	633b      	str	r3, [r7, #48]	; 0x30
    144c:	6b3b      	ldr	r3, [r7, #48]	; 0x30
    144e:	2b16      	cmp	r3, #22
    1450:	d9f1      	bls.n	1436 <Bt_SPPCallBack+0xe2>
  				QSPI_SectorEraseFlash(OTA_flash_start_addr+(i<<12));	
 	 	//	QSPI_64kEraseFlash(OTA_flash_start_addr);
//while(1);
			data[0] = OTA_CMD;
    1452:	2328      	movs	r3, #40	; 0x28
    1454:	18fb      	adds	r3, r7, r3
    1456:	22ab      	movs	r2, #171	; 0xab
    1458:	701a      	strb	r2, [r3, #0]
 			data[1] = OTA_EVT_START;			
    145a:	2328      	movs	r3, #40	; 0x28
    145c:	18fb      	adds	r3, r7, r3
    145e:	22c0      	movs	r2, #192	; 0xc0
    1460:	705a      	strb	r2, [r3, #1]
 			Bt_SndCmdSPP(data,2);
    1462:	2328      	movs	r3, #40	; 0x28
    1464:	18fb      	adds	r3, r7, r3
    1466:	2102      	movs	r1, #2
    1468:	0018      	movs	r0, r3
    146a:	f7ff fefb 	bl	1264 <Bt_SndCmdSPP>
			break;
    146e:	e13a      	b.n	16e6 <Bt_SPPCallBack+0x392>
			
 		case OTA_EVT_DATA:
  // if(iii >10)
  // 	break;
 			if(OTA_packetid == 0 || (OTA_packetid +1) == (*(dataPtr+1) + (*(dataPtr+2) <<8)))
    1470:	4ba3      	ldr	r3, [pc, #652]	; (1700 <Bt_SPPCallBack+0x3ac>)
    1472:	881b      	ldrh	r3, [r3, #0]
    1474:	2b00      	cmp	r3, #0
    1476:	d00e      	beq.n	1496 <Bt_SPPCallBack+0x142>
    1478:	4ba1      	ldr	r3, [pc, #644]	; (1700 <Bt_SPPCallBack+0x3ac>)
    147a:	881b      	ldrh	r3, [r3, #0]
    147c:	1c5a      	adds	r2, r3, #1
    147e:	683b      	ldr	r3, [r7, #0]
    1480:	3301      	adds	r3, #1
    1482:	781b      	ldrb	r3, [r3, #0]
    1484:	0019      	movs	r1, r3
    1486:	683b      	ldr	r3, [r7, #0]
    1488:	3302      	adds	r3, #2
    148a:	781b      	ldrb	r3, [r3, #0]
    148c:	021b      	lsls	r3, r3, #8
    148e:	18cb      	adds	r3, r1, r3
    1490:	429a      	cmp	r2, r3
    1492:	d000      	beq.n	1496 <Bt_SPPCallBack+0x142>
    1494:	e127      	b.n	16e6 <Bt_SPPCallBack+0x392>
 				OTA_packetid = *(dataPtr+1) + (*(dataPtr+2) <<8);
    1496:	683b      	ldr	r3, [r7, #0]
    1498:	3301      	adds	r3, #1
    149a:	781b      	ldrb	r3, [r3, #0]
    149c:	b29a      	uxth	r2, r3
    149e:	683b      	ldr	r3, [r7, #0]
    14a0:	3302      	adds	r3, #2
    14a2:	781b      	ldrb	r3, [r3, #0]
    14a4:	b29b      	uxth	r3, r3
    14a6:	021b      	lsls	r3, r3, #8
    14a8:	b29b      	uxth	r3, r3
    14aa:	18d3      	adds	r3, r2, r3
    14ac:	b29a      	uxth	r2, r3
    14ae:	4b94      	ldr	r3, [pc, #592]	; (1700 <Bt_SPPCallBack+0x3ac>)
    14b0:	801a      	strh	r2, [r3, #0]
			else
	 			break;

			if(((*(dataPtr+4) <<8) + *(dataPtr+3) ) >0)
    14b2:	683b      	ldr	r3, [r7, #0]
    14b4:	3304      	adds	r3, #4
    14b6:	781b      	ldrb	r3, [r3, #0]
    14b8:	021b      	lsls	r3, r3, #8
    14ba:	683a      	ldr	r2, [r7, #0]
    14bc:	3203      	adds	r2, #3
    14be:	7812      	ldrb	r2, [r2, #0]
    14c0:	189b      	adds	r3, r3, r2
    14c2:	2b00      	cmp	r3, #0
    14c4:	dc00      	bgt.n	14c8 <Bt_SPPCallBack+0x174>
    14c6:	e109      	b.n	16dc <Bt_SPPCallBack+0x388>
			{
 			 	QSPI_WriteFlashData(OTA_flash_start_addr+OTA_datalen,(*(dataPtr+4) <<8) + *(dataPtr+3) ,dataPtr+5);
    14c8:	4b8a      	ldr	r3, [pc, #552]	; (16f4 <Bt_SPPCallBack+0x3a0>)
    14ca:	681a      	ldr	r2, [r3, #0]
    14cc:	4b8d      	ldr	r3, [pc, #564]	; (1704 <Bt_SPPCallBack+0x3b0>)
    14ce:	681b      	ldr	r3, [r3, #0]
    14d0:	18d3      	adds	r3, r2, r3
    14d2:	0018      	movs	r0, r3
    14d4:	683b      	ldr	r3, [r7, #0]
    14d6:	3304      	adds	r3, #4
    14d8:	781b      	ldrb	r3, [r3, #0]
    14da:	021b      	lsls	r3, r3, #8
    14dc:	683a      	ldr	r2, [r7, #0]
    14de:	3203      	adds	r2, #3
    14e0:	7812      	ldrb	r2, [r2, #0]
    14e2:	1899      	adds	r1, r3, r2
    14e4:	683b      	ldr	r3, [r7, #0]
    14e6:	3305      	adds	r3, #5
    14e8:	001a      	movs	r2, r3
    14ea:	f006 fea9 	bl	8240 <QSPI_WriteFlashData>
				OTA_datalen += (*(dataPtr+4) <<8)  +  *(dataPtr+3);
    14ee:	683b      	ldr	r3, [r7, #0]
    14f0:	3304      	adds	r3, #4
    14f2:	781b      	ldrb	r3, [r3, #0]
    14f4:	021b      	lsls	r3, r3, #8
    14f6:	683a      	ldr	r2, [r7, #0]
    14f8:	3203      	adds	r2, #3
    14fa:	7812      	ldrb	r2, [r2, #0]
    14fc:	189b      	adds	r3, r3, r2
    14fe:	001a      	movs	r2, r3
    1500:	4b80      	ldr	r3, [pc, #512]	; (1704 <Bt_SPPCallBack+0x3b0>)
    1502:	681b      	ldr	r3, [r3, #0]
    1504:	18d2      	adds	r2, r2, r3
    1506:	4b7f      	ldr	r3, [pc, #508]	; (1704 <Bt_SPPCallBack+0x3b0>)
    1508:	601a      	str	r2, [r3, #0]
		//			OTA_datasum += *(dataPtr+5+i);
			}
			else
				break;
// iii++;			
 			data[0] = OTA_CMD;
    150a:	2328      	movs	r3, #40	; 0x28
    150c:	18fb      	adds	r3, r7, r3
    150e:	22ab      	movs	r2, #171	; 0xab
    1510:	701a      	strb	r2, [r3, #0]
 			data[1] = OTA_EVT_DATA;
    1512:	2328      	movs	r3, #40	; 0x28
    1514:	18fb      	adds	r3, r7, r3
    1516:	22c1      	movs	r2, #193	; 0xc1
    1518:	705a      	strb	r2, [r3, #1]
 			data[2] = *(dataPtr+1);
    151a:	683b      	ldr	r3, [r7, #0]
    151c:	785a      	ldrb	r2, [r3, #1]
    151e:	2328      	movs	r3, #40	; 0x28
    1520:	18fb      	adds	r3, r7, r3
    1522:	709a      	strb	r2, [r3, #2]
 			data[3] = *(dataPtr+2);
    1524:	683b      	ldr	r3, [r7, #0]
    1526:	789a      	ldrb	r2, [r3, #2]
    1528:	2328      	movs	r3, #40	; 0x28
    152a:	18fb      	adds	r3, r7, r3
    152c:	70da      	strb	r2, [r3, #3]
 			Bt_SndCmdSPP(data,4);
    152e:	2328      	movs	r3, #40	; 0x28
    1530:	18fb      	adds	r3, r7, r3
    1532:	2104      	movs	r1, #4
    1534:	0018      	movs	r0, r3
    1536:	f7ff fe95 	bl	1264 <Bt_SndCmdSPP>
 			break;
    153a:	e0d4      	b.n	16e6 <Bt_SPPCallBack+0x392>
 			
 		case OTA_EVT_END:
 			if(len != 9)
    153c:	1dfb      	adds	r3, r7, #7
    153e:	781b      	ldrb	r3, [r3, #0]
    1540:	2b09      	cmp	r3, #9
    1542:	d000      	beq.n	1546 <Bt_SPPCallBack+0x1f2>
    1544:	e0cc      	b.n	16e0 <Bt_SPPCallBack+0x38c>
 				break;
	  		data[0] = OTA_CMD;
    1546:	2328      	movs	r3, #40	; 0x28
    1548:	18fb      	adds	r3, r7, r3
    154a:	22ab      	movs	r2, #171	; 0xab
    154c:	701a      	strb	r2, [r3, #0]
	 		data[1] = OTA_EVT_END;
    154e:	2328      	movs	r3, #40	; 0x28
    1550:	18fb      	adds	r3, r7, r3
    1552:	22c2      	movs	r2, #194	; 0xc2
    1554:	705a      	strb	r2, [r3, #1]
	  		data[2] = *(dataPtr+1);
    1556:	683b      	ldr	r3, [r7, #0]
    1558:	785a      	ldrb	r2, [r3, #1]
    155a:	2328      	movs	r3, #40	; 0x28
    155c:	18fb      	adds	r3, r7, r3
    155e:	709a      	strb	r2, [r3, #2]
	  		data[3] = *(dataPtr+2);
    1560:	683b      	ldr	r3, [r7, #0]
    1562:	789a      	ldrb	r2, [r3, #2]
    1564:	2328      	movs	r3, #40	; 0x28
    1566:	18fb      	adds	r3, r7, r3
    1568:	70da      	strb	r2, [r3, #3]

			for(i=0; i<OTA_datalen; )
    156a:	2300      	movs	r3, #0
    156c:	633b      	str	r3, [r7, #48]	; 0x30
    156e:	e064      	b.n	163a <Bt_SPPCallBack+0x2e6>
			{
				if(OTA_datalen-i>=32)
    1570:	4b64      	ldr	r3, [pc, #400]	; (1704 <Bt_SPPCallBack+0x3b0>)
    1572:	681a      	ldr	r2, [r3, #0]
    1574:	6b3b      	ldr	r3, [r7, #48]	; 0x30
    1576:	1ad3      	subs	r3, r2, r3
    1578:	2b1f      	cmp	r3, #31
    157a:	d92b      	bls.n	15d4 <Bt_SPPCallBack+0x280>
				{
					QSPI_ReadFlashData(OTA_flash_start_addr+i,32,datatemp);	
    157c:	4b5d      	ldr	r3, [pc, #372]	; (16f4 <Bt_SPPCallBack+0x3a0>)
    157e:	681a      	ldr	r2, [r3, #0]
    1580:	6b3b      	ldr	r3, [r7, #48]	; 0x30
    1582:	18d3      	adds	r3, r2, r3
    1584:	0018      	movs	r0, r3
    1586:	2308      	movs	r3, #8
    1588:	18fb      	adds	r3, r7, r3
    158a:	001a      	movs	r2, r3
    158c:	2120      	movs	r1, #32
    158e:	f006 fc77 	bl	7e80 <QSPI_ReadFlashData>
 		 			for(j=0;j<32;j++)
    1592:	2337      	movs	r3, #55	; 0x37
    1594:	18fb      	adds	r3, r7, r3
    1596:	2200      	movs	r2, #0
    1598:	701a      	strb	r2, [r3, #0]
    159a:	e012      	b.n	15c2 <Bt_SPPCallBack+0x26e>
		 				OTA_datasum += datatemp[j];
    159c:	2337      	movs	r3, #55	; 0x37
    159e:	18fb      	adds	r3, r7, r3
    15a0:	781b      	ldrb	r3, [r3, #0]
    15a2:	2208      	movs	r2, #8
    15a4:	18ba      	adds	r2, r7, r2
    15a6:	5cd3      	ldrb	r3, [r2, r3]
    15a8:	001a      	movs	r2, r3
    15aa:	4b57      	ldr	r3, [pc, #348]	; (1708 <Bt_SPPCallBack+0x3b4>)
    15ac:	681b      	ldr	r3, [r3, #0]
    15ae:	18d2      	adds	r2, r2, r3
    15b0:	4b55      	ldr	r3, [pc, #340]	; (1708 <Bt_SPPCallBack+0x3b4>)
    15b2:	601a      	str	r2, [r3, #0]
			for(i=0; i<OTA_datalen; )
			{
				if(OTA_datalen-i>=32)
				{
					QSPI_ReadFlashData(OTA_flash_start_addr+i,32,datatemp);	
 		 			for(j=0;j<32;j++)
    15b4:	2337      	movs	r3, #55	; 0x37
    15b6:	18fb      	adds	r3, r7, r3
    15b8:	781a      	ldrb	r2, [r3, #0]
    15ba:	2337      	movs	r3, #55	; 0x37
    15bc:	18fb      	adds	r3, r7, r3
    15be:	3201      	adds	r2, #1
    15c0:	701a      	strb	r2, [r3, #0]
    15c2:	2337      	movs	r3, #55	; 0x37
    15c4:	18fb      	adds	r3, r7, r3
    15c6:	781b      	ldrb	r3, [r3, #0]
    15c8:	2b1f      	cmp	r3, #31
    15ca:	d9e7      	bls.n	159c <Bt_SPPCallBack+0x248>
		 				OTA_datasum += datatemp[j];
		 			i += 32;
    15cc:	6b3b      	ldr	r3, [r7, #48]	; 0x30
    15ce:	3320      	adds	r3, #32
    15d0:	633b      	str	r3, [r7, #48]	; 0x30
    15d2:	e032      	b.n	163a <Bt_SPPCallBack+0x2e6>
		 		}else
		 			{
					QSPI_ReadFlashData(OTA_flash_start_addr+i,OTA_datalen-i,datatemp);	
    15d4:	4b47      	ldr	r3, [pc, #284]	; (16f4 <Bt_SPPCallBack+0x3a0>)
    15d6:	681a      	ldr	r2, [r3, #0]
    15d8:	6b3b      	ldr	r3, [r7, #48]	; 0x30
    15da:	18d3      	adds	r3, r2, r3
    15dc:	0018      	movs	r0, r3
    15de:	4b49      	ldr	r3, [pc, #292]	; (1704 <Bt_SPPCallBack+0x3b0>)
    15e0:	681a      	ldr	r2, [r3, #0]
    15e2:	6b3b      	ldr	r3, [r7, #48]	; 0x30
    15e4:	1ad3      	subs	r3, r2, r3
    15e6:	0019      	movs	r1, r3
    15e8:	2308      	movs	r3, #8
    15ea:	18fb      	adds	r3, r7, r3
    15ec:	001a      	movs	r2, r3
    15ee:	f006 fc47 	bl	7e80 <QSPI_ReadFlashData>
 		 			for(j=0;j<OTA_datalen-i;j++)
    15f2:	2337      	movs	r3, #55	; 0x37
    15f4:	18fb      	adds	r3, r7, r3
    15f6:	2200      	movs	r2, #0
    15f8:	701a      	strb	r2, [r3, #0]
    15fa:	e012      	b.n	1622 <Bt_SPPCallBack+0x2ce>
		 				OTA_datasum += datatemp[j];		
    15fc:	2337      	movs	r3, #55	; 0x37
    15fe:	18fb      	adds	r3, r7, r3
    1600:	781b      	ldrb	r3, [r3, #0]
    1602:	2208      	movs	r2, #8
    1604:	18ba      	adds	r2, r7, r2
    1606:	5cd3      	ldrb	r3, [r2, r3]
    1608:	001a      	movs	r2, r3
    160a:	4b3f      	ldr	r3, [pc, #252]	; (1708 <Bt_SPPCallBack+0x3b4>)
    160c:	681b      	ldr	r3, [r3, #0]
    160e:	18d2      	adds	r2, r2, r3
    1610:	4b3d      	ldr	r3, [pc, #244]	; (1708 <Bt_SPPCallBack+0x3b4>)
    1612:	601a      	str	r2, [r3, #0]
		 				OTA_datasum += datatemp[j];
		 			i += 32;
		 		}else
		 			{
					QSPI_ReadFlashData(OTA_flash_start_addr+i,OTA_datalen-i,datatemp);	
 		 			for(j=0;j<OTA_datalen-i;j++)
    1614:	2337      	movs	r3, #55	; 0x37
    1616:	18fb      	adds	r3, r7, r3
    1618:	781a      	ldrb	r2, [r3, #0]
    161a:	2337      	movs	r3, #55	; 0x37
    161c:	18fb      	adds	r3, r7, r3
    161e:	3201      	adds	r2, #1
    1620:	701a      	strb	r2, [r3, #0]
    1622:	2337      	movs	r3, #55	; 0x37
    1624:	18fb      	adds	r3, r7, r3
    1626:	781a      	ldrb	r2, [r3, #0]
    1628:	4b36      	ldr	r3, [pc, #216]	; (1704 <Bt_SPPCallBack+0x3b0>)
    162a:	6819      	ldr	r1, [r3, #0]
    162c:	6b3b      	ldr	r3, [r7, #48]	; 0x30
    162e:	1acb      	subs	r3, r1, r3
    1630:	429a      	cmp	r2, r3
    1632:	d3e3      	bcc.n	15fc <Bt_SPPCallBack+0x2a8>
		 				OTA_datasum += datatemp[j];		
		 			i = OTA_datalen;
    1634:	4b33      	ldr	r3, [pc, #204]	; (1704 <Bt_SPPCallBack+0x3b0>)
    1636:	681b      	ldr	r3, [r3, #0]
    1638:	633b      	str	r3, [r7, #48]	; 0x30
	  		data[0] = OTA_CMD;
	 		data[1] = OTA_EVT_END;
	  		data[2] = *(dataPtr+1);
	  		data[3] = *(dataPtr+2);

			for(i=0; i<OTA_datalen; )
    163a:	4b32      	ldr	r3, [pc, #200]	; (1704 <Bt_SPPCallBack+0x3b0>)
    163c:	681b      	ldr	r3, [r3, #0]
    163e:	6b3a      	ldr	r2, [r7, #48]	; 0x30
    1640:	429a      	cmp	r2, r3
    1642:	d395      	bcc.n	1570 <Bt_SPPCallBack+0x21c>
 		 			for(j=0;j<OTA_datalen-i;j++)
		 				OTA_datasum += datatemp[j];		
		 			i = OTA_datalen;
		 			}
			}			
 			if(OTA_datasum == *(dataPtr+3) + (*(dataPtr+4)<<8) + (*(dataPtr+5)<<16)
    1644:	683b      	ldr	r3, [r7, #0]
    1646:	3303      	adds	r3, #3
    1648:	781b      	ldrb	r3, [r3, #0]
    164a:	001a      	movs	r2, r3
    164c:	683b      	ldr	r3, [r7, #0]
    164e:	3304      	adds	r3, #4
    1650:	781b      	ldrb	r3, [r3, #0]
    1652:	021b      	lsls	r3, r3, #8
    1654:	18d2      	adds	r2, r2, r3
    1656:	683b      	ldr	r3, [r7, #0]
    1658:	3305      	adds	r3, #5
    165a:	781b      	ldrb	r3, [r3, #0]
    165c:	041b      	lsls	r3, r3, #16
    165e:	18d3      	adds	r3, r2, r3
    1660:	001a      	movs	r2, r3
    1662:	4b29      	ldr	r3, [pc, #164]	; (1708 <Bt_SPPCallBack+0x3b4>)
    1664:	681b      	ldr	r3, [r3, #0]
    1666:	429a      	cmp	r2, r3
    1668:	d11d      	bne.n	16a6 <Bt_SPPCallBack+0x352>
 				&& OTA_datalen  ==  *(dataPtr+6) + (*(dataPtr+7)<<8) + (*(dataPtr+8)<<16) ) 
    166a:	683b      	ldr	r3, [r7, #0]
    166c:	3306      	adds	r3, #6
    166e:	781b      	ldrb	r3, [r3, #0]
    1670:	001a      	movs	r2, r3
    1672:	683b      	ldr	r3, [r7, #0]
    1674:	3307      	adds	r3, #7
    1676:	781b      	ldrb	r3, [r3, #0]
    1678:	021b      	lsls	r3, r3, #8
    167a:	18d2      	adds	r2, r2, r3
    167c:	683b      	ldr	r3, [r7, #0]
    167e:	3308      	adds	r3, #8
    1680:	781b      	ldrb	r3, [r3, #0]
    1682:	041b      	lsls	r3, r3, #16
    1684:	18d3      	adds	r3, r2, r3
    1686:	001a      	movs	r2, r3
    1688:	4b1e      	ldr	r3, [pc, #120]	; (1704 <Bt_SPPCallBack+0x3b0>)
    168a:	681b      	ldr	r3, [r3, #0]
    168c:	429a      	cmp	r2, r3
    168e:	d10a      	bne.n	16a6 <Bt_SPPCallBack+0x352>
				{
	  				data[4] = OTA_END_CHECK_OK;		
    1690:	2328      	movs	r3, #40	; 0x28
    1692:	18fb      	adds	r3, r7, r3
    1694:	2255      	movs	r2, #85	; 0x55
    1696:	711a      	strb	r2, [r3, #4]
		 			SYS_SetTimer(&gOTATimer,
    1698:	4b1c      	ldr	r3, [pc, #112]	; (170c <Bt_SPPCallBack+0x3b8>)
    169a:	481d      	ldr	r0, [pc, #116]	; (1710 <Bt_SPPCallBack+0x3bc>)
    169c:	2280      	movs	r2, #128	; 0x80
    169e:	210b      	movs	r1, #11
    16a0:	f002 fba8 	bl	3df4 <SYS_SetTimer>
    16a4:	e005      	b.n	16b2 <Bt_SPPCallBack+0x35e>
						11, 
						TIMER_SINGLE|TIMER_TYPE_BIT,
						Bt_CBChangeCode);
	  			}else
		  		{
		  			data[4] = OTA_END_CHECK_FAIL;	
    16a6:	2328      	movs	r3, #40	; 0x28
    16a8:	18fb      	adds	r3, r7, r3
    16aa:	22ff      	movs	r2, #255	; 0xff
    16ac:	711a      	strb	r2, [r3, #4]
		  			OTA_Init();
    16ae:	f7ff fdeb 	bl	1288 <OTA_Init>
	 	 		}
	 	 		
 			Bt_SndCmdSPP(data,5);
    16b2:	2328      	movs	r3, #40	; 0x28
    16b4:	18fb      	adds	r3, r7, r3
    16b6:	2105      	movs	r1, #5
    16b8:	0018      	movs	r0, r3
    16ba:	f7ff fdd3 	bl	1264 <Bt_SndCmdSPP>
 			break;
    16be:	e012      	b.n	16e6 <Bt_SPPCallBack+0x392>
 			
 		case OTA_EVT_RESET:
  			if(len != 1)
    16c0:	1dfb      	adds	r3, r7, #7
    16c2:	781b      	ldrb	r3, [r3, #0]
    16c4:	2b01      	cmp	r3, #1
    16c6:	d10d      	bne.n	16e4 <Bt_SPPCallBack+0x390>
 				break;
			OTA_Init();
    16c8:	f7ff fdde 	bl	1288 <OTA_Init>
			break;
    16cc:	e00b      	b.n	16e6 <Bt_SPPCallBack+0x392>
			
		default:
			OTA_Init();
    16ce:	f7ff fddb 	bl	1288 <OTA_Init>
			break;
    16d2:	e008      	b.n	16e6 <Bt_SPPCallBack+0x392>
	DEBUG_LOG(LOG_LEVEL_CORE, "IPC" ,"Bt_SPPCallBack: 0x%04X", LOG_POINT_9004, *(dataPtr));
	switch(*dataPtr)
	{
 		case OTA_EVT_START:
   			if(len != 1)
 				break;
    16d4:	46c0      	nop			; (mov r8, r8)
    16d6:	e006      	b.n	16e6 <Bt_SPPCallBack+0x392>
	 		if(CODE_START_FLASHADDR1 == REVERSE_3BYTE_DEFINE(OTA_flash_start_addr))
 				OTA_flash_start_addr = CODE_START_FLASHADDR2;
 			else if(CODE_START_FLASHADDR2 == REVERSE_3BYTE_DEFINE(OTA_flash_start_addr))
  					OTA_flash_start_addr = CODE_START_FLASHADDR1;
  				else
  					break;	
    16d8:	46c0      	nop			; (mov r8, r8)
    16da:	e004      	b.n	16e6 <Bt_SPPCallBack+0x392>
				OTA_datalen += (*(dataPtr+4) <<8)  +  *(dataPtr+3);
 		//		for(i=0;i<((*(dataPtr+4) <<8) + *(dataPtr+3) );i++)
		//			OTA_datasum += *(dataPtr+5+i);
			}
			else
				break;
    16dc:	46c0      	nop			; (mov r8, r8)
    16de:	e002      	b.n	16e6 <Bt_SPPCallBack+0x392>
 			Bt_SndCmdSPP(data,4);
 			break;
 			
 		case OTA_EVT_END:
 			if(len != 9)
 				break;
    16e0:	46c0      	nop			; (mov r8, r8)
    16e2:	e000      	b.n	16e6 <Bt_SPPCallBack+0x392>
 			Bt_SndCmdSPP(data,5);
 			break;
 			
 		case OTA_EVT_RESET:
  			if(len != 1)
 				break;
    16e4:	46c0      	nop			; (mov r8, r8)
			
		default:
			OTA_Init();
			break;
	}	
	SetReleaseQSPI( );
    16e6:	f006 fa95 	bl	7c14 <SetReleaseQSPI>
  \details Enables IRQ interrupts by clearing the I-bit in the CPSR.
           Can only be executed in Privileged modes.
 */
__attribute__( ( always_inline ) ) __STATIC_INLINE void __enable_irq(void)
{
  __ASM volatile ("cpsie i" : : : "memory");
    16ea:	b662      	cpsie	i
	OS_EXIT_CRITICAL();
}
    16ec:	46c0      	nop			; (mov r8, r8)
    16ee:	46bd      	mov	sp, r7
    16f0:	b00e      	add	sp, #56	; 0x38
    16f2:	bd80      	pop	{r7, pc}
    16f4:	1001092c 	.word	0x1001092c
    16f8:	00001003 	.word	0x00001003
    16fc:	00018003 	.word	0x00018003
    1700:	100108d0 	.word	0x100108d0
    1704:	10010808 	.word	0x10010808
    1708:	10010828 	.word	0x10010828
    170c:	000012bd 	.word	0x000012bd
    1710:	10010898 	.word	0x10010898

00001714 <Bt_BleCallBack>:


void Bt_BleCallBack(uint8_t len,uint8_t *dataPtr)
{
    1714:	b580      	push	{r7, lr}
    1716:	b08e      	sub	sp, #56	; 0x38
    1718:	af00      	add	r7, sp, #0
    171a:	0002      	movs	r2, r0
    171c:	6039      	str	r1, [r7, #0]
    171e:	1dfb      	adds	r3, r7, #7
    1720:	701a      	strb	r2, [r3, #0]
	uint8_t j=0,data[5]={0},datatemp[32]={0};
    1722:	2337      	movs	r3, #55	; 0x37
    1724:	18fb      	adds	r3, r7, r3
    1726:	2200      	movs	r2, #0
    1728:	701a      	strb	r2, [r3, #0]
    172a:	2328      	movs	r3, #40	; 0x28
    172c:	18fb      	adds	r3, r7, r3
    172e:	0018      	movs	r0, r3
    1730:	2305      	movs	r3, #5
    1732:	001a      	movs	r2, r3
    1734:	2100      	movs	r1, #0
    1736:	f009 fe13 	bl	b360 <memset>
    173a:	2308      	movs	r3, #8
    173c:	18fb      	adds	r3, r7, r3
    173e:	0018      	movs	r0, r3
    1740:	2320      	movs	r3, #32
    1742:	001a      	movs	r2, r3
    1744:	2100      	movs	r1, #0
    1746:	f009 fe0b 	bl	b360 <memset>
	uint32_t i;
//	uint16_t temp;
//	testFlag = *dataPtr;
	setRamType(MRAM);
    174a:	2000      	movs	r0, #0
    174c:	f006 fa6c 	bl	7c28 <setRamType>
	if(*dataPtr +(*(dataPtr +1)<<8) == OTA_BLE_WRITE_HANDLE  
    1750:	683b      	ldr	r3, [r7, #0]
    1752:	781b      	ldrb	r3, [r3, #0]
    1754:	001a      	movs	r2, r3
    1756:	683b      	ldr	r3, [r7, #0]
    1758:	3301      	adds	r3, #1
    175a:	781b      	ldrb	r3, [r3, #0]
    175c:	021b      	lsls	r3, r3, #8
    175e:	18d3      	adds	r3, r2, r3
    1760:	2b06      	cmp	r3, #6
    1762:	d000      	beq.n	1766 <Bt_BleCallBack+0x52>
    1764:	e1b6      	b.n	1ad4 <Bt_BleCallBack+0x3c0>
		&& len>3 && 	*(dataPtr+2) == OTA_EVT)
    1766:	1dfb      	adds	r3, r7, #7
    1768:	781b      	ldrb	r3, [r3, #0]
    176a:	2b03      	cmp	r3, #3
    176c:	d800      	bhi.n	1770 <Bt_BleCallBack+0x5c>
    176e:	e1b1      	b.n	1ad4 <Bt_BleCallBack+0x3c0>
    1770:	683b      	ldr	r3, [r7, #0]
    1772:	3302      	adds	r3, #2
    1774:	781b      	ldrb	r3, [r3, #0]
    1776:	2bba      	cmp	r3, #186	; 0xba
    1778:	d000      	beq.n	177c <Bt_BleCallBack+0x68>
    177a:	e1ab      	b.n	1ad4 <Bt_BleCallBack+0x3c0>
	{
	QSPI_Init();
    177c:	f007 f86c 	bl	8858 <QSPI_Init>
	SetLockQSPI( );
    1780:	f006 fa3e 	bl	7c00 <SetLockQSPI>
  \details Disables IRQ interrupts by setting the I-bit in the CPSR.
  Can only be executed in Privileged modes.
 */
__attribute__( ( always_inline ) ) __STATIC_INLINE void __disable_irq(void)
{
  __ASM volatile ("cpsid i" : : : "memory");
    1784:	b672      	cpsid	i
	OS_ENTER_CRITICAL();
		DEBUG_LOG(LOG_LEVEL_CORE, "IPC" ,"Bt_BleCallBack: 0x%04X", LOG_POINT_9003, *(dataPtr+3));
    1786:	46c0      	nop			; (mov r8, r8)

		switch(*(dataPtr+3))
    1788:	683b      	ldr	r3, [r7, #0]
    178a:	3303      	adds	r3, #3
    178c:	781b      	ldrb	r3, [r3, #0]
    178e:	2bc1      	cmp	r3, #193	; 0xc1
    1790:	d06d      	beq.n	186e <Bt_BleCallBack+0x15a>
    1792:	dc02      	bgt.n	179a <Bt_BleCallBack+0x86>
    1794:	2bc0      	cmp	r3, #192	; 0xc0
    1796:	d007      	beq.n	17a8 <Bt_BleCallBack+0x94>
    1798:	e191      	b.n	1abe <Bt_BleCallBack+0x3aa>
    179a:	2bc2      	cmp	r3, #194	; 0xc2
    179c:	d100      	bne.n	17a0 <Bt_BleCallBack+0x8c>
    179e:	e0c6      	b.n	192e <Bt_BleCallBack+0x21a>
    17a0:	2bff      	cmp	r3, #255	; 0xff
    17a2:	d100      	bne.n	17a6 <Bt_BleCallBack+0x92>
    17a4:	e188      	b.n	1ab8 <Bt_BleCallBack+0x3a4>
    17a6:	e18a      	b.n	1abe <Bt_BleCallBack+0x3aa>
		{
	 		case OTA_EVT_START:
	   			if(len != 4)
    17a8:	1dfb      	adds	r3, r7, #7
    17aa:	781b      	ldrb	r3, [r3, #0]
    17ac:	2b04      	cmp	r3, #4
    17ae:	d000      	beq.n	17b2 <Bt_BleCallBack+0x9e>
    17b0:	e188      	b.n	1ac4 <Bt_BleCallBack+0x3b0>
	 				break;
				OTA_Init();	
    17b2:	f7ff fd69 	bl	1288 <OTA_Init>
				QSPI_ReadFlashData(0,3,(uint8_t *)(&OTA_flash_start_addr));
    17b6:	4bc9      	ldr	r3, [pc, #804]	; (1adc <Bt_BleCallBack+0x3c8>)
    17b8:	001a      	movs	r2, r3
    17ba:	2103      	movs	r1, #3
    17bc:	2000      	movs	r0, #0
    17be:	f006 fb5f 	bl	7e80 <QSPI_ReadFlashData>
		 		if(CODE_START_FLASHADDR1 == REVERSE_3BYTE_DEFINE(OTA_flash_start_addr))
    17c2:	4bc6      	ldr	r3, [pc, #792]	; (1adc <Bt_BleCallBack+0x3c8>)
    17c4:	681b      	ldr	r3, [r3, #0]
    17c6:	0c1a      	lsrs	r2, r3, #16
    17c8:	4bc4      	ldr	r3, [pc, #784]	; (1adc <Bt_BleCallBack+0x3c8>)
    17ca:	6819      	ldr	r1, [r3, #0]
    17cc:	23ff      	movs	r3, #255	; 0xff
    17ce:	021b      	lsls	r3, r3, #8
    17d0:	400b      	ands	r3, r1
    17d2:	18d2      	adds	r2, r2, r3
    17d4:	4bc1      	ldr	r3, [pc, #772]	; (1adc <Bt_BleCallBack+0x3c8>)
    17d6:	681b      	ldr	r3, [r3, #0]
    17d8:	0419      	lsls	r1, r3, #16
    17da:	23ff      	movs	r3, #255	; 0xff
    17dc:	041b      	lsls	r3, r3, #16
    17de:	400b      	ands	r3, r1
    17e0:	18d3      	adds	r3, r2, r3
    17e2:	4abf      	ldr	r2, [pc, #764]	; (1ae0 <Bt_BleCallBack+0x3cc>)
    17e4:	4293      	cmp	r3, r2
    17e6:	d103      	bne.n	17f0 <Bt_BleCallBack+0xdc>
	 				OTA_flash_start_addr = CODE_START_FLASHADDR2;
    17e8:	4bbc      	ldr	r3, [pc, #752]	; (1adc <Bt_BleCallBack+0x3c8>)
    17ea:	4abe      	ldr	r2, [pc, #760]	; (1ae4 <Bt_BleCallBack+0x3d0>)
    17ec:	601a      	str	r2, [r3, #0]
    17ee:	e016      	b.n	181e <Bt_BleCallBack+0x10a>
	 			else if(CODE_START_FLASHADDR2 == REVERSE_3BYTE_DEFINE(OTA_flash_start_addr))
    17f0:	4bba      	ldr	r3, [pc, #744]	; (1adc <Bt_BleCallBack+0x3c8>)
    17f2:	681b      	ldr	r3, [r3, #0]
    17f4:	0c1a      	lsrs	r2, r3, #16
    17f6:	4bb9      	ldr	r3, [pc, #740]	; (1adc <Bt_BleCallBack+0x3c8>)
    17f8:	6819      	ldr	r1, [r3, #0]
    17fa:	23ff      	movs	r3, #255	; 0xff
    17fc:	021b      	lsls	r3, r3, #8
    17fe:	400b      	ands	r3, r1
    1800:	18d2      	adds	r2, r2, r3
    1802:	4bb6      	ldr	r3, [pc, #728]	; (1adc <Bt_BleCallBack+0x3c8>)
    1804:	681b      	ldr	r3, [r3, #0]
    1806:	0419      	lsls	r1, r3, #16
    1808:	23ff      	movs	r3, #255	; 0xff
    180a:	041b      	lsls	r3, r3, #16
    180c:	400b      	ands	r3, r1
    180e:	18d3      	adds	r3, r2, r3
    1810:	4ab4      	ldr	r2, [pc, #720]	; (1ae4 <Bt_BleCallBack+0x3d0>)
    1812:	4293      	cmp	r3, r2
    1814:	d000      	beq.n	1818 <Bt_BleCallBack+0x104>
    1816:	e157      	b.n	1ac8 <Bt_BleCallBack+0x3b4>
	  					OTA_flash_start_addr = CODE_START_FLASHADDR1;
    1818:	4bb0      	ldr	r3, [pc, #704]	; (1adc <Bt_BleCallBack+0x3c8>)
    181a:	4ab1      	ldr	r2, [pc, #708]	; (1ae0 <Bt_BleCallBack+0x3cc>)
    181c:	601a      	str	r2, [r3, #0]
	  				else
	  					break;	
	  					
	  			for(i=0;i<0x17;i++)
    181e:	2300      	movs	r3, #0
    1820:	633b      	str	r3, [r7, #48]	; 0x30
    1822:	e00a      	b.n	183a <Bt_BleCallBack+0x126>
	  				QSPI_SectorEraseFlash(OTA_flash_start_addr+(i<<12));	
    1824:	6b3b      	ldr	r3, [r7, #48]	; 0x30
    1826:	031a      	lsls	r2, r3, #12
    1828:	4bac      	ldr	r3, [pc, #688]	; (1adc <Bt_BleCallBack+0x3c8>)
    182a:	681b      	ldr	r3, [r3, #0]
    182c:	18d3      	adds	r3, r2, r3
    182e:	0018      	movs	r0, r3
    1830:	f006 fef6 	bl	8620 <QSPI_SectorEraseFlash>
	 			else if(CODE_START_FLASHADDR2 == REVERSE_3BYTE_DEFINE(OTA_flash_start_addr))
	  					OTA_flash_start_addr = CODE_START_FLASHADDR1;
	  				else
	  					break;	
	  					
	  			for(i=0;i<0x17;i++)
    1834:	6b3b      	ldr	r3, [r7, #48]	; 0x30
    1836:	3301      	adds	r3, #1
    1838:	633b      	str	r3, [r7, #48]	; 0x30
    183a:	6b3b      	ldr	r3, [r7, #48]	; 0x30
    183c:	2b16      	cmp	r3, #22
    183e:	d9f1      	bls.n	1824 <Bt_BleCallBack+0x110>
	  				QSPI_SectorEraseFlash(OTA_flash_start_addr+(i<<12));	
	 	 	//	QSPI_64kEraseFlash(OTA_flash_start_addr);
	 	 		
				data[0] = OTA_BLE_NOTIFY_HANDLE;
    1840:	2328      	movs	r3, #40	; 0x28
    1842:	18fb      	adds	r3, r7, r3
    1844:	2203      	movs	r2, #3
    1846:	701a      	strb	r2, [r3, #0]
				data[1] = OTA_BLE_NOTIFY_HANDLE>>8;
    1848:	2328      	movs	r3, #40	; 0x28
    184a:	18fb      	adds	r3, r7, r3
    184c:	2200      	movs	r2, #0
    184e:	705a      	strb	r2, [r3, #1]
				data[2] = OTA_CMD;
    1850:	2328      	movs	r3, #40	; 0x28
    1852:	18fb      	adds	r3, r7, r3
    1854:	22ab      	movs	r2, #171	; 0xab
    1856:	709a      	strb	r2, [r3, #2]
	 			data[3] = OTA_EVT_START;			
    1858:	2328      	movs	r3, #40	; 0x28
    185a:	18fb      	adds	r3, r7, r3
    185c:	22c0      	movs	r2, #192	; 0xc0
    185e:	70da      	strb	r2, [r3, #3]
	 			Bt_SndCmdBLE(data,4);
    1860:	2328      	movs	r3, #40	; 0x28
    1862:	18fb      	adds	r3, r7, r3
    1864:	2104      	movs	r1, #4
    1866:	0018      	movs	r0, r3
    1868:	f7ff fcea 	bl	1240 <Bt_SndCmdBLE>
				break;
    186c:	e12f      	b.n	1ace <Bt_BleCallBack+0x3ba>
				
	 		case OTA_EVT_DATA:
//	    if(iii >2)
//	    	break;
	 			if(OTA_packetid == 0 || (OTA_packetid +1) == (*(dataPtr+4) + (*(dataPtr+5) <<8)))
    186e:	4b9e      	ldr	r3, [pc, #632]	; (1ae8 <Bt_BleCallBack+0x3d4>)
    1870:	881b      	ldrh	r3, [r3, #0]
    1872:	2b00      	cmp	r3, #0
    1874:	d00e      	beq.n	1894 <Bt_BleCallBack+0x180>
    1876:	4b9c      	ldr	r3, [pc, #624]	; (1ae8 <Bt_BleCallBack+0x3d4>)
    1878:	881b      	ldrh	r3, [r3, #0]
    187a:	1c5a      	adds	r2, r3, #1
    187c:	683b      	ldr	r3, [r7, #0]
    187e:	3304      	adds	r3, #4
    1880:	781b      	ldrb	r3, [r3, #0]
    1882:	0019      	movs	r1, r3
    1884:	683b      	ldr	r3, [r7, #0]
    1886:	3305      	adds	r3, #5
    1888:	781b      	ldrb	r3, [r3, #0]
    188a:	021b      	lsls	r3, r3, #8
    188c:	18cb      	adds	r3, r1, r3
    188e:	429a      	cmp	r2, r3
    1890:	d000      	beq.n	1894 <Bt_BleCallBack+0x180>
    1892:	e11c      	b.n	1ace <Bt_BleCallBack+0x3ba>
	 				OTA_packetid = *(dataPtr+4) + (*(dataPtr+5) <<8);
    1894:	683b      	ldr	r3, [r7, #0]
    1896:	3304      	adds	r3, #4
    1898:	781b      	ldrb	r3, [r3, #0]
    189a:	b29a      	uxth	r2, r3
    189c:	683b      	ldr	r3, [r7, #0]
    189e:	3305      	adds	r3, #5
    18a0:	781b      	ldrb	r3, [r3, #0]
    18a2:	b29b      	uxth	r3, r3
    18a4:	021b      	lsls	r3, r3, #8
    18a6:	b29b      	uxth	r3, r3
    18a8:	18d3      	adds	r3, r2, r3
    18aa:	b29a      	uxth	r2, r3
    18ac:	4b8e      	ldr	r3, [pc, #568]	; (1ae8 <Bt_BleCallBack+0x3d4>)
    18ae:	801a      	strh	r2, [r3, #0]
				else
		 			break;

				if( *(dataPtr+6) >0)
    18b0:	683b      	ldr	r3, [r7, #0]
    18b2:	3306      	adds	r3, #6
    18b4:	781b      	ldrb	r3, [r3, #0]
    18b6:	2b00      	cmp	r3, #0
    18b8:	d100      	bne.n	18bc <Bt_BleCallBack+0x1a8>
    18ba:	e107      	b.n	1acc <Bt_BleCallBack+0x3b8>
				{
	 			 	QSPI_WriteFlashData(OTA_flash_start_addr+OTA_datalen, *(dataPtr+6),dataPtr+7);
    18bc:	4b87      	ldr	r3, [pc, #540]	; (1adc <Bt_BleCallBack+0x3c8>)
    18be:	681a      	ldr	r2, [r3, #0]
    18c0:	4b8a      	ldr	r3, [pc, #552]	; (1aec <Bt_BleCallBack+0x3d8>)
    18c2:	681b      	ldr	r3, [r3, #0]
    18c4:	18d3      	adds	r3, r2, r3
    18c6:	0018      	movs	r0, r3
    18c8:	683b      	ldr	r3, [r7, #0]
    18ca:	3306      	adds	r3, #6
    18cc:	781b      	ldrb	r3, [r3, #0]
    18ce:	0019      	movs	r1, r3
    18d0:	683b      	ldr	r3, [r7, #0]
    18d2:	3307      	adds	r3, #7
    18d4:	001a      	movs	r2, r3
    18d6:	f006 fcb3 	bl	8240 <QSPI_WriteFlashData>
					OTA_datalen +=  *(dataPtr+6);
    18da:	683b      	ldr	r3, [r7, #0]
    18dc:	3306      	adds	r3, #6
    18de:	781b      	ldrb	r3, [r3, #0]
    18e0:	001a      	movs	r2, r3
    18e2:	4b82      	ldr	r3, [pc, #520]	; (1aec <Bt_BleCallBack+0x3d8>)
    18e4:	681b      	ldr	r3, [r3, #0]
    18e6:	18d2      	adds	r2, r2, r3
    18e8:	4b80      	ldr	r3, [pc, #512]	; (1aec <Bt_BleCallBack+0x3d8>)
    18ea:	601a      	str	r2, [r3, #0]
//	 				for(i=0;i<*(dataPtr+6) ;i++)
//						OTA_datasum += *(dataPtr+7+i);
				}
				else
					break;		
				data[0] = OTA_BLE_NOTIFY_HANDLE;
    18ec:	2328      	movs	r3, #40	; 0x28
    18ee:	18fb      	adds	r3, r7, r3
    18f0:	2203      	movs	r2, #3
    18f2:	701a      	strb	r2, [r3, #0]
				data[1] = OTA_BLE_NOTIFY_HANDLE>>8;
    18f4:	2328      	movs	r3, #40	; 0x28
    18f6:	18fb      	adds	r3, r7, r3
    18f8:	2200      	movs	r2, #0
    18fa:	705a      	strb	r2, [r3, #1]
				data[2] = OTA_CMD;
    18fc:	2328      	movs	r3, #40	; 0x28
    18fe:	18fb      	adds	r3, r7, r3
    1900:	22ab      	movs	r2, #171	; 0xab
    1902:	709a      	strb	r2, [r3, #2]
	 			data[3] = OTA_EVT_DATA;
    1904:	2328      	movs	r3, #40	; 0x28
    1906:	18fb      	adds	r3, r7, r3
    1908:	22c1      	movs	r2, #193	; 0xc1
    190a:	70da      	strb	r2, [r3, #3]
	 	 		data[4] = *(dataPtr+4);
    190c:	683b      	ldr	r3, [r7, #0]
    190e:	791a      	ldrb	r2, [r3, #4]
    1910:	2328      	movs	r3, #40	; 0x28
    1912:	18fb      	adds	r3, r7, r3
    1914:	711a      	strb	r2, [r3, #4]
	 			data[5] = *(dataPtr+5);
    1916:	683b      	ldr	r3, [r7, #0]
    1918:	795a      	ldrb	r2, [r3, #5]
    191a:	2328      	movs	r3, #40	; 0x28
    191c:	18fb      	adds	r3, r7, r3
    191e:	715a      	strb	r2, [r3, #5]
	 			Bt_SndCmdBLE(data,6);
    1920:	2328      	movs	r3, #40	; 0x28
    1922:	18fb      	adds	r3, r7, r3
    1924:	2106      	movs	r1, #6
    1926:	0018      	movs	r0, r3
    1928:	f7ff fc8a 	bl	1240 <Bt_SndCmdBLE>
	 			break;
    192c:	e0cf      	b.n	1ace <Bt_BleCallBack+0x3ba>
	 			
	 		case OTA_EVT_END:
//	 			if(len != 9)
//	 				break;
				data[0] = OTA_BLE_NOTIFY_HANDLE;
    192e:	2328      	movs	r3, #40	; 0x28
    1930:	18fb      	adds	r3, r7, r3
    1932:	2203      	movs	r2, #3
    1934:	701a      	strb	r2, [r3, #0]
				data[1] = OTA_BLE_NOTIFY_HANDLE>>8;
    1936:	2328      	movs	r3, #40	; 0x28
    1938:	18fb      	adds	r3, r7, r3
    193a:	2200      	movs	r2, #0
    193c:	705a      	strb	r2, [r3, #1]
		  		data[2] = OTA_CMD;
    193e:	2328      	movs	r3, #40	; 0x28
    1940:	18fb      	adds	r3, r7, r3
    1942:	22ab      	movs	r2, #171	; 0xab
    1944:	709a      	strb	r2, [r3, #2]
		 		data[3] = OTA_EVT_END;
    1946:	2328      	movs	r3, #40	; 0x28
    1948:	18fb      	adds	r3, r7, r3
    194a:	22c2      	movs	r2, #194	; 0xc2
    194c:	70da      	strb	r2, [r3, #3]
		  		data[4] = *(dataPtr+4);
    194e:	683b      	ldr	r3, [r7, #0]
    1950:	791a      	ldrb	r2, [r3, #4]
    1952:	2328      	movs	r3, #40	; 0x28
    1954:	18fb      	adds	r3, r7, r3
    1956:	711a      	strb	r2, [r3, #4]
		  		data[5] = *(dataPtr+5);
    1958:	683b      	ldr	r3, [r7, #0]
    195a:	795a      	ldrb	r2, [r3, #5]
    195c:	2328      	movs	r3, #40	; 0x28
    195e:	18fb      	adds	r3, r7, r3
    1960:	715a      	strb	r2, [r3, #5]

				for(i=0; i<OTA_datalen; )
    1962:	2300      	movs	r3, #0
    1964:	633b      	str	r3, [r7, #48]	; 0x30
    1966:	e064      	b.n	1a32 <Bt_BleCallBack+0x31e>
				{
					if(OTA_datalen-i>=32)
    1968:	4b60      	ldr	r3, [pc, #384]	; (1aec <Bt_BleCallBack+0x3d8>)
    196a:	681a      	ldr	r2, [r3, #0]
    196c:	6b3b      	ldr	r3, [r7, #48]	; 0x30
    196e:	1ad3      	subs	r3, r2, r3
    1970:	2b1f      	cmp	r3, #31
    1972:	d92b      	bls.n	19cc <Bt_BleCallBack+0x2b8>
					{
						QSPI_ReadFlashData(OTA_flash_start_addr+i,32,datatemp);	
    1974:	4b59      	ldr	r3, [pc, #356]	; (1adc <Bt_BleCallBack+0x3c8>)
    1976:	681a      	ldr	r2, [r3, #0]
    1978:	6b3b      	ldr	r3, [r7, #48]	; 0x30
    197a:	18d3      	adds	r3, r2, r3
    197c:	0018      	movs	r0, r3
    197e:	2308      	movs	r3, #8
    1980:	18fb      	adds	r3, r7, r3
    1982:	001a      	movs	r2, r3
    1984:	2120      	movs	r1, #32
    1986:	f006 fa7b 	bl	7e80 <QSPI_ReadFlashData>
	 		 			for(j=0;j<32;j++)
    198a:	2337      	movs	r3, #55	; 0x37
    198c:	18fb      	adds	r3, r7, r3
    198e:	2200      	movs	r2, #0
    1990:	701a      	strb	r2, [r3, #0]
    1992:	e012      	b.n	19ba <Bt_BleCallBack+0x2a6>
			 				OTA_datasum += datatemp[j];
    1994:	2337      	movs	r3, #55	; 0x37
    1996:	18fb      	adds	r3, r7, r3
    1998:	781b      	ldrb	r3, [r3, #0]
    199a:	2208      	movs	r2, #8
    199c:	18ba      	adds	r2, r7, r2
    199e:	5cd3      	ldrb	r3, [r2, r3]
    19a0:	001a      	movs	r2, r3
    19a2:	4b53      	ldr	r3, [pc, #332]	; (1af0 <Bt_BleCallBack+0x3dc>)
    19a4:	681b      	ldr	r3, [r3, #0]
    19a6:	18d2      	adds	r2, r2, r3
    19a8:	4b51      	ldr	r3, [pc, #324]	; (1af0 <Bt_BleCallBack+0x3dc>)
    19aa:	601a      	str	r2, [r3, #0]
				for(i=0; i<OTA_datalen; )
				{
					if(OTA_datalen-i>=32)
					{
						QSPI_ReadFlashData(OTA_flash_start_addr+i,32,datatemp);	
	 		 			for(j=0;j<32;j++)
    19ac:	2337      	movs	r3, #55	; 0x37
    19ae:	18fb      	adds	r3, r7, r3
    19b0:	781a      	ldrb	r2, [r3, #0]
    19b2:	2337      	movs	r3, #55	; 0x37
    19b4:	18fb      	adds	r3, r7, r3
    19b6:	3201      	adds	r2, #1
    19b8:	701a      	strb	r2, [r3, #0]
    19ba:	2337      	movs	r3, #55	; 0x37
    19bc:	18fb      	adds	r3, r7, r3
    19be:	781b      	ldrb	r3, [r3, #0]
    19c0:	2b1f      	cmp	r3, #31
    19c2:	d9e7      	bls.n	1994 <Bt_BleCallBack+0x280>
			 				OTA_datasum += datatemp[j];
			 			i += 32;
    19c4:	6b3b      	ldr	r3, [r7, #48]	; 0x30
    19c6:	3320      	adds	r3, #32
    19c8:	633b      	str	r3, [r7, #48]	; 0x30
    19ca:	e032      	b.n	1a32 <Bt_BleCallBack+0x31e>
			 		}else
			 			{
						QSPI_ReadFlashData(OTA_flash_start_addr+i,OTA_datalen-i,datatemp);	
    19cc:	4b43      	ldr	r3, [pc, #268]	; (1adc <Bt_BleCallBack+0x3c8>)
    19ce:	681a      	ldr	r2, [r3, #0]
    19d0:	6b3b      	ldr	r3, [r7, #48]	; 0x30
    19d2:	18d3      	adds	r3, r2, r3
    19d4:	0018      	movs	r0, r3
    19d6:	4b45      	ldr	r3, [pc, #276]	; (1aec <Bt_BleCallBack+0x3d8>)
    19d8:	681a      	ldr	r2, [r3, #0]
    19da:	6b3b      	ldr	r3, [r7, #48]	; 0x30
    19dc:	1ad3      	subs	r3, r2, r3
    19de:	0019      	movs	r1, r3
    19e0:	2308      	movs	r3, #8
    19e2:	18fb      	adds	r3, r7, r3
    19e4:	001a      	movs	r2, r3
    19e6:	f006 fa4b 	bl	7e80 <QSPI_ReadFlashData>
			 			for(j=0;j<OTA_datalen-i;j++)
    19ea:	2337      	movs	r3, #55	; 0x37
    19ec:	18fb      	adds	r3, r7, r3
    19ee:	2200      	movs	r2, #0
    19f0:	701a      	strb	r2, [r3, #0]
    19f2:	e012      	b.n	1a1a <Bt_BleCallBack+0x306>
			 				OTA_datasum += datatemp[j];	
    19f4:	2337      	movs	r3, #55	; 0x37
    19f6:	18fb      	adds	r3, r7, r3
    19f8:	781b      	ldrb	r3, [r3, #0]
    19fa:	2208      	movs	r2, #8
    19fc:	18ba      	adds	r2, r7, r2
    19fe:	5cd3      	ldrb	r3, [r2, r3]
    1a00:	001a      	movs	r2, r3
    1a02:	4b3b      	ldr	r3, [pc, #236]	; (1af0 <Bt_BleCallBack+0x3dc>)
    1a04:	681b      	ldr	r3, [r3, #0]
    1a06:	18d2      	adds	r2, r2, r3
    1a08:	4b39      	ldr	r3, [pc, #228]	; (1af0 <Bt_BleCallBack+0x3dc>)
    1a0a:	601a      	str	r2, [r3, #0]
			 				OTA_datasum += datatemp[j];
			 			i += 32;
			 		}else
			 			{
						QSPI_ReadFlashData(OTA_flash_start_addr+i,OTA_datalen-i,datatemp);	
			 			for(j=0;j<OTA_datalen-i;j++)
    1a0c:	2337      	movs	r3, #55	; 0x37
    1a0e:	18fb      	adds	r3, r7, r3
    1a10:	781a      	ldrb	r2, [r3, #0]
    1a12:	2337      	movs	r3, #55	; 0x37
    1a14:	18fb      	adds	r3, r7, r3
    1a16:	3201      	adds	r2, #1
    1a18:	701a      	strb	r2, [r3, #0]
    1a1a:	2337      	movs	r3, #55	; 0x37
    1a1c:	18fb      	adds	r3, r7, r3
    1a1e:	781a      	ldrb	r2, [r3, #0]
    1a20:	4b32      	ldr	r3, [pc, #200]	; (1aec <Bt_BleCallBack+0x3d8>)
    1a22:	6819      	ldr	r1, [r3, #0]
    1a24:	6b3b      	ldr	r3, [r7, #48]	; 0x30
    1a26:	1acb      	subs	r3, r1, r3
    1a28:	429a      	cmp	r2, r3
    1a2a:	d3e3      	bcc.n	19f4 <Bt_BleCallBack+0x2e0>
			 				OTA_datasum += datatemp[j];	
			 			i = OTA_datalen;
    1a2c:	4b2f      	ldr	r3, [pc, #188]	; (1aec <Bt_BleCallBack+0x3d8>)
    1a2e:	681b      	ldr	r3, [r3, #0]
    1a30:	633b      	str	r3, [r7, #48]	; 0x30
		  		data[2] = OTA_CMD;
		 		data[3] = OTA_EVT_END;
		  		data[4] = *(dataPtr+4);
		  		data[5] = *(dataPtr+5);

				for(i=0; i<OTA_datalen; )
    1a32:	4b2e      	ldr	r3, [pc, #184]	; (1aec <Bt_BleCallBack+0x3d8>)
    1a34:	681b      	ldr	r3, [r3, #0]
    1a36:	6b3a      	ldr	r2, [r7, #48]	; 0x30
    1a38:	429a      	cmp	r2, r3
    1a3a:	d395      	bcc.n	1968 <Bt_BleCallBack+0x254>
			 			for(j=0;j<OTA_datalen-i;j++)
			 				OTA_datasum += datatemp[j];	
			 			i = OTA_datalen;
			 			}
				}			
	 			if(OTA_datasum == *(dataPtr+6) + (*(dataPtr+7)<<8) + (*(dataPtr+8)<<16)
    1a3c:	683b      	ldr	r3, [r7, #0]
    1a3e:	3306      	adds	r3, #6
    1a40:	781b      	ldrb	r3, [r3, #0]
    1a42:	001a      	movs	r2, r3
    1a44:	683b      	ldr	r3, [r7, #0]
    1a46:	3307      	adds	r3, #7
    1a48:	781b      	ldrb	r3, [r3, #0]
    1a4a:	021b      	lsls	r3, r3, #8
    1a4c:	18d2      	adds	r2, r2, r3
    1a4e:	683b      	ldr	r3, [r7, #0]
    1a50:	3308      	adds	r3, #8
    1a52:	781b      	ldrb	r3, [r3, #0]
    1a54:	041b      	lsls	r3, r3, #16
    1a56:	18d3      	adds	r3, r2, r3
    1a58:	001a      	movs	r2, r3
    1a5a:	4b25      	ldr	r3, [pc, #148]	; (1af0 <Bt_BleCallBack+0x3dc>)
    1a5c:	681b      	ldr	r3, [r3, #0]
    1a5e:	429a      	cmp	r2, r3
    1a60:	d11d      	bne.n	1a9e <Bt_BleCallBack+0x38a>
	 				&& OTA_datalen  ==  *(dataPtr+9) + (*(dataPtr+10)<<8) + (*(dataPtr+11)<<16) ) 
    1a62:	683b      	ldr	r3, [r7, #0]
    1a64:	3309      	adds	r3, #9
    1a66:	781b      	ldrb	r3, [r3, #0]
    1a68:	001a      	movs	r2, r3
    1a6a:	683b      	ldr	r3, [r7, #0]
    1a6c:	330a      	adds	r3, #10
    1a6e:	781b      	ldrb	r3, [r3, #0]
    1a70:	021b      	lsls	r3, r3, #8
    1a72:	18d2      	adds	r2, r2, r3
    1a74:	683b      	ldr	r3, [r7, #0]
    1a76:	330b      	adds	r3, #11
    1a78:	781b      	ldrb	r3, [r3, #0]
    1a7a:	041b      	lsls	r3, r3, #16
    1a7c:	18d3      	adds	r3, r2, r3
    1a7e:	001a      	movs	r2, r3
    1a80:	4b1a      	ldr	r3, [pc, #104]	; (1aec <Bt_BleCallBack+0x3d8>)
    1a82:	681b      	ldr	r3, [r3, #0]
    1a84:	429a      	cmp	r2, r3
    1a86:	d10a      	bne.n	1a9e <Bt_BleCallBack+0x38a>
					{
		  				data[6] = OTA_END_CHECK_OK;		
    1a88:	2328      	movs	r3, #40	; 0x28
    1a8a:	18fb      	adds	r3, r7, r3
    1a8c:	2255      	movs	r2, #85	; 0x55
    1a8e:	719a      	strb	r2, [r3, #6]
			 			SYS_SetTimer(&gOTATimer,
    1a90:	4b18      	ldr	r3, [pc, #96]	; (1af4 <Bt_BleCallBack+0x3e0>)
    1a92:	4819      	ldr	r0, [pc, #100]	; (1af8 <Bt_BleCallBack+0x3e4>)
    1a94:	2280      	movs	r2, #128	; 0x80
    1a96:	210b      	movs	r1, #11
    1a98:	f002 f9ac 	bl	3df4 <SYS_SetTimer>
    1a9c:	e005      	b.n	1aaa <Bt_BleCallBack+0x396>
							11, 
							TIMER_SINGLE|TIMER_TYPE_BIT,
							Bt_CBChangeCode);
 	  			}else
			  		{
			  			data[6] = OTA_END_CHECK_FAIL;	
    1a9e:	2328      	movs	r3, #40	; 0x28
    1aa0:	18fb      	adds	r3, r7, r3
    1aa2:	22ff      	movs	r2, #255	; 0xff
    1aa4:	719a      	strb	r2, [r3, #6]
			  			OTA_Init();
    1aa6:	f7ff fbef 	bl	1288 <OTA_Init>
		 	 		}
		 	 		
	 			Bt_SndCmdBLE(data,7);
    1aaa:	2328      	movs	r3, #40	; 0x28
    1aac:	18fb      	adds	r3, r7, r3
    1aae:	2107      	movs	r1, #7
    1ab0:	0018      	movs	r0, r3
    1ab2:	f7ff fbc5 	bl	1240 <Bt_SndCmdBLE>
	 			break;
    1ab6:	e00a      	b.n	1ace <Bt_BleCallBack+0x3ba>
	 			
	 		case OTA_EVT_RESET:
//	  			if(len != 4)
//	 				break;
				OTA_Init();
    1ab8:	f7ff fbe6 	bl	1288 <OTA_Init>
				break;
    1abc:	e007      	b.n	1ace <Bt_BleCallBack+0x3ba>
				
			default:
				OTA_Init();
    1abe:	f7ff fbe3 	bl	1288 <OTA_Init>
				break;
    1ac2:	e004      	b.n	1ace <Bt_BleCallBack+0x3ba>

		switch(*(dataPtr+3))
		{
	 		case OTA_EVT_START:
	   			if(len != 4)
	 				break;
    1ac4:	46c0      	nop			; (mov r8, r8)
    1ac6:	e002      	b.n	1ace <Bt_BleCallBack+0x3ba>
		 		if(CODE_START_FLASHADDR1 == REVERSE_3BYTE_DEFINE(OTA_flash_start_addr))
	 				OTA_flash_start_addr = CODE_START_FLASHADDR2;
	 			else if(CODE_START_FLASHADDR2 == REVERSE_3BYTE_DEFINE(OTA_flash_start_addr))
	  					OTA_flash_start_addr = CODE_START_FLASHADDR1;
	  				else
	  					break;	
    1ac8:	46c0      	nop			; (mov r8, r8)
    1aca:	e000      	b.n	1ace <Bt_BleCallBack+0x3ba>
					OTA_datalen +=  *(dataPtr+6);
//	 				for(i=0;i<*(dataPtr+6) ;i++)
//						OTA_datasum += *(dataPtr+7+i);
				}
				else
					break;		
    1acc:	46c0      	nop			; (mov r8, r8)
				
			default:
				OTA_Init();
				break;
		}	
	SetReleaseQSPI( );
    1ace:	f006 f8a1 	bl	7c14 <SetReleaseQSPI>
  \details Enables IRQ interrupts by clearing the I-bit in the CPSR.
           Can only be executed in Privileged modes.
 */
__attribute__( ( always_inline ) ) __STATIC_INLINE void __enable_irq(void)
{
  __ASM volatile ("cpsie i" : : : "memory");
    1ad2:	b662      	cpsie	i
	{
	
	}
	
	
}
    1ad4:	46c0      	nop			; (mov r8, r8)
    1ad6:	46bd      	mov	sp, r7
    1ad8:	b00e      	add	sp, #56	; 0x38
    1ada:	bd80      	pop	{r7, pc}
    1adc:	1001092c 	.word	0x1001092c
    1ae0:	00001003 	.word	0x00001003
    1ae4:	00018003 	.word	0x00018003
    1ae8:	100108d0 	.word	0x100108d0
    1aec:	10010808 	.word	0x10010808
    1af0:	10010828 	.word	0x10010828
    1af4:	000012bd 	.word	0x000012bd
    1af8:	10010898 	.word	0x10010898

00001afc <Bt_A2DPCallBack>:


void Bt_A2DPCallBack(uint8_t len,uint8_t *dataPtr)
{
    1afc:	b580      	push	{r7, lr}
    1afe:	b082      	sub	sp, #8
    1b00:	af00      	add	r7, sp, #0
    1b02:	0002      	movs	r2, r0
    1b04:	6039      	str	r1, [r7, #0]
    1b06:	1dfb      	adds	r3, r7, #7
    1b08:	701a      	strb	r2, [r3, #0]
	testFlag = *dataPtr;
    1b0a:	683b      	ldr	r3, [r7, #0]
    1b0c:	781a      	ldrb	r2, [r3, #0]
    1b0e:	4b34      	ldr	r3, [pc, #208]	; (1be0 <Bt_A2DPCallBack+0xe4>)
    1b10:	701a      	strb	r2, [r3, #0]
	DEBUG_LOG(LOG_LEVEL_CORE, "IPC" ,"Bt_A2DPCallBack: 0x%04X", LOG_POINT_9006, *dataPtr);
    1b12:	46c0      	nop			; (mov r8, r8)
	switch(*dataPtr)
    1b14:	683b      	ldr	r3, [r7, #0]
    1b16:	781b      	ldrb	r3, [r3, #0]
    1b18:	2b08      	cmp	r3, #8
    1b1a:	d01f      	beq.n	1b5c <Bt_A2DPCallBack+0x60>
    1b1c:	dc04      	bgt.n	1b28 <Bt_A2DPCallBack+0x2c>
    1b1e:	2b06      	cmp	r3, #6
    1b20:	d007      	beq.n	1b32 <Bt_A2DPCallBack+0x36>
    1b22:	2b07      	cmp	r3, #7
    1b24:	d008      	beq.n	1b38 <Bt_A2DPCallBack+0x3c>
				HWRITE(mem_audio_vol,dataPtr[1]);
 			}
 			break;
 		
		default:
			break;
    1b26:	e056      	b.n	1bd6 <Bt_A2DPCallBack+0xda>

void Bt_A2DPCallBack(uint8_t len,uint8_t *dataPtr)
{
	testFlag = *dataPtr;
	DEBUG_LOG(LOG_LEVEL_CORE, "IPC" ,"Bt_A2DPCallBack: 0x%04X", LOG_POINT_9006, *dataPtr);
	switch(*dataPtr)
    1b28:	2b09      	cmp	r3, #9
    1b2a:	d020      	beq.n	1b6e <Bt_A2DPCallBack+0x72>
    1b2c:	2b80      	cmp	r3, #128	; 0x80
    1b2e:	d027      	beq.n	1b80 <Bt_A2DPCallBack+0x84>
				HWRITE(mem_audio_vol,dataPtr[1]);
 			}
 			break;
 		
		default:
			break;
    1b30:	e051      	b.n	1bd6 <Bt_A2DPCallBack+0xda>
	testFlag = *dataPtr;
	DEBUG_LOG(LOG_LEVEL_CORE, "IPC" ,"Bt_A2DPCallBack: 0x%04X", LOG_POINT_9006, *dataPtr);
	switch(*dataPtr)
	{
 		case AVDTP_IDENTIFIER_OPEN:
 			Bt_SetEnterSniffTimer();
    1b32:	f7ff f90f 	bl	d54 <Bt_SetEnterSniffTimer>

 			//HWRITE(mem_a2dp_state,AVDTP_IDENTIFIER_OPEN);
 			break;
    1b36:	e04e      	b.n	1bd6 <Bt_A2DPCallBack+0xda>
 		case AVDTP_IDENTIFIER_START:
 			FarrowFilterInit();
    1b38:	f008 fe70 	bl	a81c <FarrowFilterInit>
 			Bt_SetIncPwrTimer();
    1b3c:	f7ff f89a 	bl	c74 <Bt_SetIncPwrTimer>
 			SYS_ReleaseTimer(&gEnterSniffTimer);
    1b40:	4b28      	ldr	r3, [pc, #160]	; (1be4 <Bt_A2DPCallBack+0xe8>)
    1b42:	0018      	movs	r0, r3
    1b44:	f002 fa8c 	bl	4060 <SYS_ReleaseTimer>
 			SYS_ReleaseTimer(&gClosePaDelayTimer);
    1b48:	4b27      	ldr	r3, [pc, #156]	; (1be8 <Bt_A2DPCallBack+0xec>)
    1b4a:	0018      	movs	r0, r3
    1b4c:	f002 fa88 	bl	4060 <SYS_ReleaseTimer>
 			#ifdef AUDIO_SYNC_DEF
 			Bt_TwsResetFuncInit();
    1b50:	f001 fb46 	bl	31e0 <Bt_TwsResetFuncInit>
 			#endif //AUDIO_SYNC_DEF

 			VP_snd_voiceEvt(VP_POPDOWN);
    1b54:	2012      	movs	r0, #18
    1b56:	f006 ff19 	bl	898c <VP_snd_voiceEvt>
			
 			//HWRITE(mem_a2dp_state,AVDTP_IDENTIFIER_START);
 			break;
    1b5a:	e03c      	b.n	1bd6 <Bt_A2DPCallBack+0xda>
 		case AVDTP_IDENTIFIER_CLOSE:
 			SYS_ReleaseTimer(&gMAXPowerTimer);
    1b5c:	4b23      	ldr	r3, [pc, #140]	; (1bec <Bt_A2DPCallBack+0xf0>)
    1b5e:	0018      	movs	r0, r3
    1b60:	f002 fa7e 	bl	4060 <SYS_ReleaseTimer>
 			Bt_SetEnterSniffTimer();
    1b64:	f7ff f8f6 	bl	d54 <Bt_SetEnterSniffTimer>
			#ifdef AUDIO_SYNC_DEF
 			Bt_TwsResetFuncInit();
    1b68:	f001 fb3a 	bl	31e0 <Bt_TwsResetFuncInit>
 			#endif //#ifdef AUDIO_SYNC_DEF
 			//HWRITE(mem_a2dp_state,AVDTP_IDENTIFIER_CLOSE);
 			break;
    1b6c:	e033      	b.n	1bd6 <Bt_A2DPCallBack+0xda>
 		case AVDTP_IDENTIFIER_SUSPEND:
 			SYS_ReleaseTimer(&gMAXPowerTimer);
    1b6e:	4b1f      	ldr	r3, [pc, #124]	; (1bec <Bt_A2DPCallBack+0xf0>)
    1b70:	0018      	movs	r0, r3
    1b72:	f002 fa75 	bl	4060 <SYS_ReleaseTimer>
 			Bt_SetEnterSniffTimer();
    1b76:	f7ff f8ed 	bl	d54 <Bt_SetEnterSniffTimer>
 			#ifdef AUDIO_SYNC_DEF
 			Bt_TwsResetFuncInit();
    1b7a:	f001 fb31 	bl	31e0 <Bt_TwsResetFuncInit>
 			#endif //#ifdef AUDIO_SYNC_DEF
 			//HWRITE(mem_a2dp_state,AVDTP_IDENTIFIER_SUSPEND);
 			break;
    1b7e:	e02a      	b.n	1bd6 <Bt_A2DPCallBack+0xda>
 			
 		case AVDTP_VOL_CHANGED:
 			DEBUG_LOG(LOG_LEVEL_CORE, "IPC" ,"Bt_A2DPCallBack AVDTP_VOL_CHANGED: 0x%04X", LOG_POINT_900D, dataPtr[1]);
    1b80:	46c0      	nop			; (mov r8, r8)
 			if (dataPtr[1] == 0x07){
    1b82:	683b      	ldr	r3, [r7, #0]
    1b84:	3301      	adds	r3, #1
    1b86:	781b      	ldrb	r3, [r3, #0]
    1b88:	2b07      	cmp	r3, #7
    1b8a:	d103      	bne.n	1b94 <Bt_A2DPCallBack+0x98>
				HWRITE(mem_audio_vol,0x03);//diff=3
    1b8c:	4b18      	ldr	r3, [pc, #96]	; (1bf0 <Bt_A2DPCallBack+0xf4>)
    1b8e:	2203      	movs	r2, #3
    1b90:	701a      	strb	r2, [r3, #0]
				HWRITE(mem_audio_vol,0x1C);//diff=11
 			}
 			else{
				HWRITE(mem_audio_vol,dataPtr[1]);
 			}
 			break;
    1b92:	e01f      	b.n	1bd4 <Bt_A2DPCallBack+0xd8>
 		case AVDTP_VOL_CHANGED:
 			DEBUG_LOG(LOG_LEVEL_CORE, "IPC" ,"Bt_A2DPCallBack AVDTP_VOL_CHANGED: 0x%04X", LOG_POINT_900D, dataPtr[1]);
 			if (dataPtr[1] == 0x07){
				HWRITE(mem_audio_vol,0x03);//diff=3
 			}
 			else if(dataPtr[1] == 0x0f){
    1b94:	683b      	ldr	r3, [r7, #0]
    1b96:	3301      	adds	r3, #1
    1b98:	781b      	ldrb	r3, [r3, #0]
    1b9a:	2b0f      	cmp	r3, #15
    1b9c:	d103      	bne.n	1ba6 <Bt_A2DPCallBack+0xaa>
				HWRITE(mem_audio_vol,0x09);//diff=6
    1b9e:	4b14      	ldr	r3, [pc, #80]	; (1bf0 <Bt_A2DPCallBack+0xf4>)
    1ba0:	2209      	movs	r2, #9
    1ba2:	701a      	strb	r2, [r3, #0]
				HWRITE(mem_audio_vol,0x1C);//diff=11
 			}
 			else{
				HWRITE(mem_audio_vol,dataPtr[1]);
 			}
 			break;
    1ba4:	e016      	b.n	1bd4 <Bt_A2DPCallBack+0xd8>
				HWRITE(mem_audio_vol,0x03);//diff=3
 			}
 			else if(dataPtr[1] == 0x0f){
				HWRITE(mem_audio_vol,0x09);//diff=6
 			}
 			else if(dataPtr[1] == 0x17){
    1ba6:	683b      	ldr	r3, [r7, #0]
    1ba8:	3301      	adds	r3, #1
    1baa:	781b      	ldrb	r3, [r3, #0]
    1bac:	2b17      	cmp	r3, #23
    1bae:	d103      	bne.n	1bb8 <Bt_A2DPCallBack+0xbc>
				HWRITE(mem_audio_vol,0x11);//diff=10
    1bb0:	4b0f      	ldr	r3, [pc, #60]	; (1bf0 <Bt_A2DPCallBack+0xf4>)
    1bb2:	2211      	movs	r2, #17
    1bb4:	701a      	strb	r2, [r3, #0]
				HWRITE(mem_audio_vol,0x1C);//diff=11
 			}
 			else{
				HWRITE(mem_audio_vol,dataPtr[1]);
 			}
 			break;
    1bb6:	e00d      	b.n	1bd4 <Bt_A2DPCallBack+0xd8>
				HWRITE(mem_audio_vol,0x09);//diff=6
 			}
 			else if(dataPtr[1] == 0x17){
				HWRITE(mem_audio_vol,0x11);//diff=10
 			}
 			else if(dataPtr[1] == 0x1F){
    1bb8:	683b      	ldr	r3, [r7, #0]
    1bba:	3301      	adds	r3, #1
    1bbc:	781b      	ldrb	r3, [r3, #0]
    1bbe:	2b1f      	cmp	r3, #31
    1bc0:	d103      	bne.n	1bca <Bt_A2DPCallBack+0xce>
				HWRITE(mem_audio_vol,0x1C);//diff=11
    1bc2:	4b0b      	ldr	r3, [pc, #44]	; (1bf0 <Bt_A2DPCallBack+0xf4>)
    1bc4:	221c      	movs	r2, #28
    1bc6:	701a      	strb	r2, [r3, #0]
 			}
 			else{
				HWRITE(mem_audio_vol,dataPtr[1]);
 			}
 			break;
    1bc8:	e004      	b.n	1bd4 <Bt_A2DPCallBack+0xd8>
 			}
 			else if(dataPtr[1] == 0x1F){
				HWRITE(mem_audio_vol,0x1C);//diff=11
 			}
 			else{
				HWRITE(mem_audio_vol,dataPtr[1]);
    1bca:	4a09      	ldr	r2, [pc, #36]	; (1bf0 <Bt_A2DPCallBack+0xf4>)
    1bcc:	683b      	ldr	r3, [r7, #0]
    1bce:	3301      	adds	r3, #1
    1bd0:	781b      	ldrb	r3, [r3, #0]
    1bd2:	7013      	strb	r3, [r2, #0]
 			}
 			break;
    1bd4:	46c0      	nop			; (mov r8, r8)
 		
		default:
			break;
	}	
}
    1bd6:	46c0      	nop			; (mov r8, r8)
    1bd8:	46bd      	mov	sp, r7
    1bda:	b002      	add	sp, #8
    1bdc:	bd80      	pop	{r7, pc}
    1bde:	46c0      	nop			; (mov r8, r8)
    1be0:	100108f2 	.word	0x100108f2
    1be4:	100107f0 	.word	0x100107f0
    1be8:	10010880 	.word	0x10010880
    1bec:	1001080c 	.word	0x1001080c
    1bf0:	100042ac 	.word	0x100042ac

00001bf4 <Bt_HFPCallBack>:


void Bt_HFPCallBack(uint8_t len,uint8_t *dataPtr)
{
    1bf4:	b580      	push	{r7, lr}
    1bf6:	b084      	sub	sp, #16
    1bf8:	af00      	add	r7, sp, #0
    1bfa:	0002      	movs	r2, r0
    1bfc:	6039      	str	r1, [r7, #0]
    1bfe:	1dfb      	adds	r3, r7, #7
    1c00:	701a      	strb	r2, [r3, #0]
	uint16_t temp16;
	DEBUG_LOG(LOG_LEVEL_CORE, "IPC" ,"Bt_HFPCallBack: 0x%04X", LOG_POINT_9007, *dataPtr);
    1c02:	46c0      	nop			; (mov r8, r8)
	switch(*dataPtr)
    1c04:	683b      	ldr	r3, [r7, #0]
    1c06:	781b      	ldrb	r3, [r3, #0]
    1c08:	2b01      	cmp	r3, #1
    1c0a:	d002      	beq.n	1c12 <Bt_HFPCallBack+0x1e>
    1c0c:	2b02      	cmp	r3, #2
    1c0e:	d02d      	beq.n	1c6c <Bt_HFPCallBack+0x78>
			#endif //#ifdef AUDIO_SYNC_DEF
			SYS_ReleaseTimer(&gMAXPowerTimer);
			Bt_SetEnterSniffTimer();
		 	break;
		default:
			break;
    1c10:	e052      	b.n	1cb8 <Bt_HFPCallBack+0xc4>
	uint16_t temp16;
	DEBUG_LOG(LOG_LEVEL_CORE, "IPC" ,"Bt_HFPCallBack: 0x%04X", LOG_POINT_9007, *dataPtr);
	switch(*dataPtr)
	{
		case HFP_EVT_ESCO_START:
			temp16= HREADW(0x8050);
    1c12:	4b2b      	ldr	r3, [pc, #172]	; (1cc0 <Bt_HFPCallBack+0xcc>)
    1c14:	781b      	ldrb	r3, [r3, #0]
    1c16:	b2db      	uxtb	r3, r3
    1c18:	b21a      	sxth	r2, r3
    1c1a:	4b2a      	ldr	r3, [pc, #168]	; (1cc4 <Bt_HFPCallBack+0xd0>)
    1c1c:	781b      	ldrb	r3, [r3, #0]
    1c1e:	b2db      	uxtb	r3, r3
    1c20:	021b      	lsls	r3, r3, #8
    1c22:	b21b      	sxth	r3, r3
    1c24:	4313      	orrs	r3, r2
    1c26:	b21a      	sxth	r2, r3
    1c28:	230e      	movs	r3, #14
    1c2a:	18fb      	adds	r3, r7, r3
    1c2c:	801a      	strh	r2, [r3, #0]
			//CLOCK_OFF_VOICE_FILTER,bit6
			temp16 = temp16&0xffbf;
    1c2e:	230e      	movs	r3, #14
    1c30:	18fb      	adds	r3, r7, r3
    1c32:	220e      	movs	r2, #14
    1c34:	18ba      	adds	r2, r7, r2
    1c36:	8812      	ldrh	r2, [r2, #0]
    1c38:	2140      	movs	r1, #64	; 0x40
    1c3a:	438a      	bics	r2, r1
    1c3c:	801a      	strh	r2, [r3, #0]
			HWRITE(0x8050,temp16);
    1c3e:	4a20      	ldr	r2, [pc, #128]	; (1cc0 <Bt_HFPCallBack+0xcc>)
    1c40:	230e      	movs	r3, #14
    1c42:	18fb      	adds	r3, r7, r3
    1c44:	881b      	ldrh	r3, [r3, #0]
    1c46:	b2db      	uxtb	r3, r3
    1c48:	7013      	strb	r3, [r2, #0]
			#ifdef AUDIO_SYNC_DEF
			gHfpWorkingState = 1;
    1c4a:	4b1f      	ldr	r3, [pc, #124]	; (1cc8 <Bt_HFPCallBack+0xd4>)
    1c4c:	2201      	movs	r2, #1
    1c4e:	701a      	strb	r2, [r3, #0]
			#endif //AUDIO_SYNC_DEF

			Bt_SetIncPwrTimer();
    1c50:	f7ff f810 	bl	c74 <Bt_SetIncPwrTimer>
			SYS_ReleaseTimer(&gEnterSniffTimer);
    1c54:	4b1d      	ldr	r3, [pc, #116]	; (1ccc <Bt_HFPCallBack+0xd8>)
    1c56:	0018      	movs	r0, r3
    1c58:	f002 fa02 	bl	4060 <SYS_ReleaseTimer>
			SYS_ReleaseTimer(&gClosePaDelayTimer);
    1c5c:	4b1c      	ldr	r3, [pc, #112]	; (1cd0 <Bt_HFPCallBack+0xdc>)
    1c5e:	0018      	movs	r0, r3
    1c60:	f002 f9fe 	bl	4060 <SYS_ReleaseTimer>
			VP_snd_voiceEvt(VP_POPDOWN);
    1c64:	2012      	movs	r0, #18
    1c66:	f006 fe91 	bl	898c <VP_snd_voiceEvt>
			break;
    1c6a:	e025      	b.n	1cb8 <Bt_HFPCallBack+0xc4>
		case HFP_EVT_ESCO_STOP:
			temp16= HREADW(0x8050);
    1c6c:	4b14      	ldr	r3, [pc, #80]	; (1cc0 <Bt_HFPCallBack+0xcc>)
    1c6e:	781b      	ldrb	r3, [r3, #0]
    1c70:	b2db      	uxtb	r3, r3
    1c72:	b21a      	sxth	r2, r3
    1c74:	4b13      	ldr	r3, [pc, #76]	; (1cc4 <Bt_HFPCallBack+0xd0>)
    1c76:	781b      	ldrb	r3, [r3, #0]
    1c78:	b2db      	uxtb	r3, r3
    1c7a:	021b      	lsls	r3, r3, #8
    1c7c:	b21b      	sxth	r3, r3
    1c7e:	4313      	orrs	r3, r2
    1c80:	b21a      	sxth	r2, r3
    1c82:	230e      	movs	r3, #14
    1c84:	18fb      	adds	r3, r7, r3
    1c86:	801a      	strh	r2, [r3, #0]
			//CLOCK_OFF_VOICE_FILTER,bit6
			temp16 = temp16|0x0040;
    1c88:	230e      	movs	r3, #14
    1c8a:	18fb      	adds	r3, r7, r3
    1c8c:	220e      	movs	r2, #14
    1c8e:	18ba      	adds	r2, r7, r2
    1c90:	8812      	ldrh	r2, [r2, #0]
    1c92:	2140      	movs	r1, #64	; 0x40
    1c94:	430a      	orrs	r2, r1
    1c96:	801a      	strh	r2, [r3, #0]
			HWRITE(0x8050,temp16);
    1c98:	4a09      	ldr	r2, [pc, #36]	; (1cc0 <Bt_HFPCallBack+0xcc>)
    1c9a:	230e      	movs	r3, #14
    1c9c:	18fb      	adds	r3, r7, r3
    1c9e:	881b      	ldrh	r3, [r3, #0]
    1ca0:	b2db      	uxtb	r3, r3
    1ca2:	7013      	strb	r3, [r2, #0]
			#ifdef AUDIO_SYNC_DEF
			gHfpWorkingState = 0;
    1ca4:	4b08      	ldr	r3, [pc, #32]	; (1cc8 <Bt_HFPCallBack+0xd4>)
    1ca6:	2200      	movs	r2, #0
    1ca8:	701a      	strb	r2, [r3, #0]
			#endif //#ifdef AUDIO_SYNC_DEF
			SYS_ReleaseTimer(&gMAXPowerTimer);
    1caa:	4b0a      	ldr	r3, [pc, #40]	; (1cd4 <Bt_HFPCallBack+0xe0>)
    1cac:	0018      	movs	r0, r3
    1cae:	f002 f9d7 	bl	4060 <SYS_ReleaseTimer>
			Bt_SetEnterSniffTimer();
    1cb2:	f7ff f84f 	bl	d54 <Bt_SetEnterSniffTimer>
		 	break;
    1cb6:	46c0      	nop			; (mov r8, r8)
		default:
			break;
	}
	
	return;
    1cb8:	46c0      	nop			; (mov r8, r8)
}
    1cba:	46bd      	mov	sp, r7
    1cbc:	b004      	add	sp, #16
    1cbe:	bd80      	pop	{r7, pc}
    1cc0:	10008050 	.word	0x10008050
    1cc4:	10008051 	.word	0x10008051
    1cc8:	1001090c 	.word	0x1001090c
    1ccc:	100107f0 	.word	0x100107f0
    1cd0:	10010880 	.word	0x10010880
    1cd4:	1001080c 	.word	0x1001080c

00001cd8 <Bt_TWSCallBack>:


void Bt_TWSCallBack(uint8_t len,uint8_t *dataPtr)
{
    1cd8:	b580      	push	{r7, lr}
    1cda:	b082      	sub	sp, #8
    1cdc:	af00      	add	r7, sp, #0
    1cde:	0002      	movs	r2, r0
    1ce0:	6039      	str	r1, [r7, #0]
    1ce2:	1dfb      	adds	r3, r7, #7
    1ce4:	701a      	strb	r2, [r3, #0]
	DEBUG_LOG_2(LOG_LEVEL_CORE, "IPC" ,"Bt_TWSCallBack: 0x%04X", LOG_POINT_9008, *dataPtr, gBRState.twsState);
    1ce6:	46c0      	nop			; (mov r8, r8)
	DEBUG_LOG_2(LOG_LEVEL_CORE, "IPC" ,"Bt_TWSCallBack: 0x%04X", LOG_POINT_9009, gBRState.topState, gBRState.secondState);
    1ce8:	46c0      	nop			; (mov r8, r8)
	if (gBRState.topState <= BR_CHARGER_IN)
    1cea:	4b97      	ldr	r3, [pc, #604]	; (1f48 <Bt_TWSCallBack+0x270>)
    1cec:	7e1b      	ldrb	r3, [r3, #24]
    1cee:	2b02      	cmp	r3, #2
    1cf0:	d800      	bhi.n	1cf4 <Bt_TWSCallBack+0x1c>
    1cf2:	e11b      	b.n	1f2c <Bt_TWSCallBack+0x254>
		return;

	switch(*dataPtr)
    1cf4:	683b      	ldr	r3, [r7, #0]
    1cf6:	781b      	ldrb	r3, [r3, #0]
    1cf8:	2b3e      	cmp	r3, #62	; 0x3e
    1cfa:	d900      	bls.n	1cfe <Bt_TWSCallBack+0x26>
    1cfc:	e118      	b.n	1f30 <Bt_TWSCallBack+0x258>
    1cfe:	009a      	lsls	r2, r3, #2
    1d00:	4b92      	ldr	r3, [pc, #584]	; (1f4c <Bt_TWSCallBack+0x274>)
    1d02:	18d3      	adds	r3, r2, r3
    1d04:	681b      	ldr	r3, [r3, #0]
    1d06:	469f      	mov	pc, r3
	{
		case TWS_EVT_TWS_NONE:
			gBRState.twsState = BR_IDLE;
    1d08:	4b8f      	ldr	r3, [pc, #572]	; (1f48 <Bt_TWSCallBack+0x270>)
    1d0a:	2205      	movs	r2, #5
    1d0c:	76da      	strb	r2, [r3, #27]
			break;
    1d0e:	e118      	b.n	1f42 <Bt_TWSCallBack+0x26a>
		case TWS_EVT_ENTER_PAIR:
			Bt_ProcessLedFunc(LED_EVT_TWS_PARING);
    1d10:	2007      	movs	r0, #7
    1d12:	f005 fa2b 	bl	716c <Bt_ProcessLedFunc>
			gBRState.twsState = BR_TWS_PAIRING;
    1d16:	4b8c      	ldr	r3, [pc, #560]	; (1f48 <Bt_TWSCallBack+0x270>)
    1d18:	2212      	movs	r2, #18
    1d1a:	76da      	strb	r2, [r3, #27]
			break;
    1d1c:	e111      	b.n	1f42 <Bt_TWSCallBack+0x26a>
			
		case TWS_EVT_EXIT_PAIR:
			gBRState.twsState = BR_IDLE;
    1d1e:	4b8a      	ldr	r3, [pc, #552]	; (1f48 <Bt_TWSCallBack+0x270>)
    1d20:	2205      	movs	r2, #5
    1d22:	76da      	strb	r2, [r3, #27]
			break;
    1d24:	e10d      	b.n	1f42 <Bt_TWSCallBack+0x26a>

		case TWS_EVT_PAIR_SUCCESS:
			VP_snd_voiceEvt(VP_TWS_CONNECTED);
    1d26:	2006      	movs	r0, #6
    1d28:	f006 fe30 	bl	898c <VP_snd_voiceEvt>
			Bt_ProcessLedFunc(LED_EVT_TWS_PARED);
    1d2c:	2008      	movs	r0, #8
    1d2e:	f005 fa1d 	bl	716c <Bt_ProcessLedFunc>
			if (HREAD(REG_B_TWS_ROLE) == TWS_SET_MASTER)
    1d32:	4b87      	ldr	r3, [pc, #540]	; (1f50 <Bt_TWSCallBack+0x278>)
    1d34:	781b      	ldrb	r3, [r3, #0]
    1d36:	b2db      	uxtb	r3, r3
    1d38:	2b55      	cmp	r3, #85	; 0x55
    1d3a:	d000      	beq.n	1d3e <Bt_TWSCallBack+0x66>
    1d3c:	e0fa      	b.n	1f34 <Bt_TWSCallBack+0x25c>
				Bt_CheckReconnectAction(); 
    1d3e:	f000 fadb 	bl	22f8 <Bt_CheckReconnectAction>
			break;
    1d42:	e0f7      	b.n	1f34 <Bt_TWSCallBack+0x25c>

		case TWS_EVT_WAIT_SLAVE:
			Bt_ReleaseReconTimer();
    1d44:	f000 fc92 	bl	266c <Bt_ReleaseReconTimer>
			gBRState.twsState = BR_TWS_WAIT_SLAVE;
    1d48:	4b7f      	ldr	r3, [pc, #508]	; (1f48 <Bt_TWSCallBack+0x270>)
    1d4a:	2214      	movs	r2, #20
    1d4c:	76da      	strb	r2, [r3, #27]
			SYS_SetTimer(&gTWSWaitSlaveTimer,
    1d4e:	4a81      	ldr	r2, [pc, #516]	; (1f54 <Bt_TWSCallBack+0x27c>)
    1d50:	2396      	movs	r3, #150	; 0x96
    1d52:	00d9      	lsls	r1, r3, #3
    1d54:	4880      	ldr	r0, [pc, #512]	; (1f58 <Bt_TWSCallBack+0x280>)
    1d56:	0013      	movs	r3, r2
    1d58:	2280      	movs	r2, #128	; 0x80
    1d5a:	f002 f84b 	bl	3df4 <SYS_SetTimer>
				1200, // 2min
				TIMER_SINGLE|TIMER_TYPE_BIT,
				Bt_CBWaitSlaveTimeout);
			break;
    1d5e:	e0f0      	b.n	1f42 <Bt_TWSCallBack+0x26a>

		case TWS_EVT_WAIT_MASTER:
			Bt_ReleaseReconTimer();
    1d60:	f000 fc84 	bl	266c <Bt_ReleaseReconTimer>
			gBRState.twsState = BR_TWS_WAIT_MASTER;
    1d64:	4b78      	ldr	r3, [pc, #480]	; (1f48 <Bt_TWSCallBack+0x270>)
    1d66:	2215      	movs	r2, #21
    1d68:	76da      	strb	r2, [r3, #27]
			break;
    1d6a:	e0ea      	b.n	1f42 <Bt_TWSCallBack+0x26a>
			
		case  TWS_EVT_SLAVE_CONNECTED:
			SYS_ReleaseTimer(&gBRState.autoPowerTimer);
    1d6c:	4b76      	ldr	r3, [pc, #472]	; (1f48 <Bt_TWSCallBack+0x270>)
    1d6e:	0018      	movs	r0, r3
    1d70:	f002 f976 	bl	4060 <SYS_ReleaseTimer>
			Bt_ProcessLedFunc(LED_EVT_CONNECTED);
    1d74:	2002      	movs	r0, #2
    1d76:	f005 f9f9 	bl	716c <Bt_ProcessLedFunc>
			Bt_ProcessLedFunc(LED_EVT_CONNECTED_IDLE);
    1d7a:	200c      	movs	r0, #12
    1d7c:	f005 f9f6 	bl	716c <Bt_ProcessLedFunc>
			gBRState.twsState = BR_TWS_SLAVE_CONNECTED;
    1d80:	4b71      	ldr	r3, [pc, #452]	; (1f48 <Bt_TWSCallBack+0x270>)
    1d82:	2216      	movs	r2, #22
    1d84:	76da      	strb	r2, [r3, #27]
			gBRState.secondState = BR_CONNECTED;
    1d86:	4b70      	ldr	r3, [pc, #448]	; (1f48 <Bt_TWSCallBack+0x270>)
    1d88:	220a      	movs	r2, #10
    1d8a:	765a      	strb	r2, [r3, #25]

			#ifdef AUDIO_SYNC_DEF
			// Check is before power on play
			if (AVD_AUDIO_ALLOW == HREAD(mem_audio_allow))
    1d8c:	4b73      	ldr	r3, [pc, #460]	; (1f5c <Bt_TWSCallBack+0x284>)
    1d8e:	781b      	ldrb	r3, [r3, #0]
    1d90:	b2db      	uxtb	r3, r3
    1d92:	2b01      	cmp	r3, #1
    1d94:	d102      	bne.n	1d9c <Bt_TWSCallBack+0xc4>
			{
				Bt_SndCmdSlaveResetAudio();
    1d96:	f000 ff87 	bl	2ca8 <Bt_SndCmdSlaveResetAudio>
			else
			{
				g_is_need_send_slave_reset_audio_cmd = 1;
			}
			#endif //AUDIO_SYNC_DEF
			break;
    1d9a:	e0d2      	b.n	1f42 <Bt_TWSCallBack+0x26a>
			{
				Bt_SndCmdSlaveResetAudio();
			}
			else
			{
				g_is_need_send_slave_reset_audio_cmd = 1;
    1d9c:	4b70      	ldr	r3, [pc, #448]	; (1f60 <Bt_TWSCallBack+0x288>)
    1d9e:	2201      	movs	r2, #1
    1da0:	701a      	strb	r2, [r3, #0]
			}
			#endif //AUDIO_SYNC_DEF
			break;
    1da2:	e0ce      	b.n	1f42 <Bt_TWSCallBack+0x26a>

		case  TWS_EVT_MASTER_CONNECTED:
			SYS_ReleaseTimer(&gTWSWaitSlaveTimer);
    1da4:	4b6c      	ldr	r3, [pc, #432]	; (1f58 <Bt_TWSCallBack+0x280>)
    1da6:	0018      	movs	r0, r3
    1da8:	f002 f95a 	bl	4060 <SYS_ReleaseTimer>
			HWRITE(mem_tws_record_state,0x55);
    1dac:	4b6d      	ldr	r3, [pc, #436]	; (1f64 <Bt_TWSCallBack+0x28c>)
    1dae:	2255      	movs	r2, #85	; 0x55
    1db0:	701a      	strb	r2, [r3, #0]
			Bt_calReconInfoCRC();
    1db2:	f000 fa1d 	bl	21f0 <Bt_calReconInfoCRC>
			Bt_UpdateDeviceInfo();
    1db6:	f000 fa7f 	bl	22b8 <Bt_UpdateDeviceInfo>
			
			gBRState.twsState = BR_TWS_MASTER_CONNECTED;
    1dba:	4b63      	ldr	r3, [pc, #396]	; (1f48 <Bt_TWSCallBack+0x270>)
    1dbc:	2217      	movs	r2, #23
    1dbe:	76da      	strb	r2, [r3, #27]
			#ifdef AUDIO_SYNC_DEF
 			Bt_TwsResetFuncInit();
    1dc0:	f001 fa0e 	bl	31e0 <Bt_TwsResetFuncInit>
 			#endif //Bt_TwsResetFuncInit
			break;
    1dc4:	e0bd      	b.n	1f42 <Bt_TWSCallBack+0x26a>

		case TWS_EVT_START_RECON:
			gBRState.twsState = BR_TWS_RECON;
    1dc6:	4b60      	ldr	r3, [pc, #384]	; (1f48 <Bt_TWSCallBack+0x270>)
    1dc8:	2213      	movs	r2, #19
    1dca:	76da      	strb	r2, [r3, #27]
			break;
    1dcc:	e0b9      	b.n	1f42 <Bt_TWSCallBack+0x26a>

		case TWS_EVT_SLAVE_FOUND:
			VP_snd_voiceEvt(VP_TWS_CONNECTED);
    1dce:	2006      	movs	r0, #6
    1dd0:	f006 fddc 	bl	898c <VP_snd_voiceEvt>
			Bt_ReleaseReconTimer();
    1dd4:	f000 fc4a 	bl	266c <Bt_ReleaseReconTimer>
			Bt_ReleaseReconnectPhoneTimer();
    1dd8:	f000 fc74 	bl	26c4 <Bt_ReleaseReconnectPhoneTimer>
			if (gBRState.twsState == BR_TWS_RECON)
    1ddc:	4b5a      	ldr	r3, [pc, #360]	; (1f48 <Bt_TWSCallBack+0x270>)
    1dde:	7edb      	ldrb	r3, [r3, #27]
    1de0:	2b13      	cmp	r3, #19
    1de2:	d000      	beq.n	1de6 <Bt_TWSCallBack+0x10e>
    1de4:	e0a8      	b.n	1f38 <Bt_TWSCallBack+0x260>
			{
				gBRState.twsState = BR_IDLE;
    1de6:	4b58      	ldr	r3, [pc, #352]	; (1f48 <Bt_TWSCallBack+0x270>)
    1de8:	2205      	movs	r2, #5
    1dea:	76da      	strb	r2, [r3, #27]
				Bt_CheckReconnectAction();
    1dec:	f000 fa84 	bl	22f8 <Bt_CheckReconnectAction>
			}
			break;
    1df0:	e0a2      	b.n	1f38 <Bt_TWSCallBack+0x260>
			
		case TWS_EVT_MASTER_FOUND:
			VP_snd_voiceEvt(VP_TWS_CONNECTED);
    1df2:	2006      	movs	r0, #6
    1df4:	f006 fdca 	bl	898c <VP_snd_voiceEvt>
			Bt_ReleaseReconTimer();
    1df8:	f000 fc38 	bl	266c <Bt_ReleaseReconTimer>
			Bt_SndCmdStopDiscovery();
    1dfc:	f000 fb2c 	bl	2458 <Bt_SndCmdStopDiscovery>
			gBRState.twsState = BR_IDLE;
    1e00:	4b51      	ldr	r3, [pc, #324]	; (1f48 <Bt_TWSCallBack+0x270>)
    1e02:	2205      	movs	r2, #5
    1e04:	76da      	strb	r2, [r3, #27]
			Bt_SndCmdWaitMaster();
    1e06:	f000 fb75 	bl	24f4 <Bt_SndCmdWaitMaster>
			Bt_ProcessLedFunc(LED_EVT_TWS_SLAVE_CONNECTED);
    1e0a:	2009      	movs	r0, #9
    1e0c:	f005 f9ae 	bl	716c <Bt_ProcessLedFunc>
			break;
    1e10:	e097      	b.n	1f42 <Bt_TWSCallBack+0x26a>


		case TWS_SYNC_EVT_POWR_OFF:
			if (gBRState.twsState == BR_TWS_MASTER_CONNECTED){
    1e12:	4b4d      	ldr	r3, [pc, #308]	; (1f48 <Bt_TWSCallBack+0x270>)
    1e14:	7edb      	ldrb	r3, [r3, #27]
    1e16:	2b17      	cmp	r3, #23
    1e18:	d102      	bne.n	1e20 <Bt_TWSCallBack+0x148>
				Bt_SndCmdWaitTwsSlave();
    1e1a:	f001 fa89 	bl	3330 <Bt_SndCmdWaitTwsSlave>
					Lpm_LockLpm(LINK_LPM_FLAG);
					Bt_SndCmdDisconnect();
				}
				Bt_SndCmdWaitPwroff();
			}
			break;
    1e1e:	e090      	b.n	1f42 <Bt_TWSCallBack+0x26a>
		case TWS_SYNC_EVT_POWR_OFF:
			if (gBRState.twsState == BR_TWS_MASTER_CONNECTED){
				Bt_SndCmdWaitTwsSlave();
				//gBRState.gcount1++;
			}
			else if (SYS_TimerisExist(&gChargerIn_timer)){
    1e20:	4b51      	ldr	r3, [pc, #324]	; (1f68 <Bt_TWSCallBack+0x290>)
    1e22:	0018      	movs	r0, r3
    1e24:	f002 f844 	bl	3eb0 <SYS_TimerisExist>
    1e28:	1e03      	subs	r3, r0, #0
    1e2a:	d009      	beq.n	1e40 <Bt_TWSCallBack+0x168>
				//gBRState.gcount3++;
			//else if (gBRState.topState == BR_CHARGER_IN 
			//	&& gBRState.twsState == BR_TWS_SLAVE_CONNECTED){
				SYS_ReleaseTimer(&gChargerIn_timer);
    1e2c:	4b4e      	ldr	r3, [pc, #312]	; (1f68 <Bt_TWSCallBack+0x290>)
    1e2e:	0018      	movs	r0, r3
    1e30:	f002 f916 	bl	4060 <SYS_ReleaseTimer>
				Bat_CbChargerIn(0);
    1e34:	2000      	movs	r0, #0
    1e36:	f007 fc33 	bl	96a0 <Bat_CbChargerIn>
				Bt_SndCmdAcceptTwsSwitch();
    1e3a:	f000 fc6b 	bl	2714 <Bt_SndCmdAcceptTwsSwitch>
					Lpm_LockLpm(LINK_LPM_FLAG);
					Bt_SndCmdDisconnect();
				}
				Bt_SndCmdWaitPwroff();
			}
			break;
    1e3e:	e080      	b.n	1f42 <Bt_TWSCallBack+0x26a>
				SYS_ReleaseTimer(&gChargerIn_timer);
				Bat_CbChargerIn(0);
				Bt_SndCmdAcceptTwsSwitch();
			}
			else{
				gBRState.twsState = BR_IDLE; 
    1e40:	4b41      	ldr	r3, [pc, #260]	; (1f48 <Bt_TWSCallBack+0x270>)
    1e42:	2205      	movs	r2, #5
    1e44:	76da      	strb	r2, [r3, #27]
				if (gBRState.secondState >= BR_CONNECTING)
    1e46:	4b40      	ldr	r3, [pc, #256]	; (1f48 <Bt_TWSCallBack+0x270>)
    1e48:	7e5b      	ldrb	r3, [r3, #25]
    1e4a:	2b08      	cmp	r3, #8
    1e4c:	d904      	bls.n	1e58 <Bt_TWSCallBack+0x180>
				{
					Lpm_LockLpm(LINK_LPM_FLAG);
    1e4e:	2010      	movs	r0, #16
    1e50:	f004 ff40 	bl	6cd4 <Lpm_LockLpm>
					Bt_SndCmdDisconnect();
    1e54:	f000 faf0 	bl	2438 <Bt_SndCmdDisconnect>
				}
				Bt_SndCmdWaitPwroff();
    1e58:	f000 fa9e 	bl	2398 <Bt_SndCmdWaitPwroff>
			}
			break;
    1e5c:	e071      	b.n	1f42 <Bt_TWSCallBack+0x26a>
		case TWS_SYNC_EVT_USER1:
			tws_key_func_handle(KEY_0, TWS_KEY_EVT_TYPE_TAP, true);
    1e5e:	2201      	movs	r2, #1
    1e60:	2100      	movs	r1, #0
    1e62:	2000      	movs	r0, #0
    1e64:	f7fe faa2 	bl	3ac <tws_key_func_handle>
			break;
    1e68:	e06b      	b.n	1f42 <Bt_TWSCallBack+0x26a>
		case TWS_SYNC_EVT_USER2:
			tws_key_func_handle(KEY_0, TWS_KEY_EVT_TYPE_DOUBLE, true);
    1e6a:	2201      	movs	r2, #1
    1e6c:	2101      	movs	r1, #1
    1e6e:	2000      	movs	r0, #0
    1e70:	f7fe fa9c 	bl	3ac <tws_key_func_handle>
			break;
    1e74:	e065      	b.n	1f42 <Bt_TWSCallBack+0x26a>
		case TWS_SYNC_EVT_USER3:
			tws_key_func_handle(KEY_0, TWS_KEY_EVT_TYPE_TRIPLE, true);
    1e76:	2201      	movs	r2, #1
    1e78:	2102      	movs	r1, #2
    1e7a:	2000      	movs	r0, #0
    1e7c:	f7fe fa96 	bl	3ac <tws_key_func_handle>
			break;      
    1e80:	e05f      	b.n	1f42 <Bt_TWSCallBack+0x26a>
		case TWS_SYNC_EVT_USER4:
			tws_key_func_handle(KEY_0, TWS_KEY_EVT_TYPE_LONG, true);
    1e82:	2201      	movs	r2, #1
    1e84:	2103      	movs	r1, #3
    1e86:	2000      	movs	r0, #0
    1e88:	f7fe fa90 	bl	3ac <tws_key_func_handle>
			break;
    1e8c:	e059      	b.n	1f42 <Bt_TWSCallBack+0x26a>
		case TWS_SYNC_EVT_MASTER_SWITCH:  
			if (gBRState.twsState == BR_TWS_SLAVE_CONNECTED)
    1e8e:	4b2e      	ldr	r3, [pc, #184]	; (1f48 <Bt_TWSCallBack+0x270>)
    1e90:	7edb      	ldrb	r3, [r3, #27]
    1e92:	2b16      	cmp	r3, #22
    1e94:	d106      	bne.n	1ea4 <Bt_TWSCallBack+0x1cc>
			{
				//gBRState.gcount2++;
				SYS_SetTimer(&gSwithMasterTimer, 10, TIMER_SINGLE, CB_SwitchToMaster);
    1e96:	4b35      	ldr	r3, [pc, #212]	; (1f6c <Bt_TWSCallBack+0x294>)
    1e98:	4835      	ldr	r0, [pc, #212]	; (1f70 <Bt_TWSCallBack+0x298>)
    1e9a:	2200      	movs	r2, #0
    1e9c:	210a      	movs	r1, #10
    1e9e:	f001 ffa9 	bl	3df4 <SYS_SetTimer>
			}
			else if (gBRState.twsState == BR_TWS_MASTER_CONNECTED){
				SYS_ReleaseTimer(&gChargerIn_timer);
				Bat_CbChargerIn(0);
			}
			break;
    1ea2:	e04b      	b.n	1f3c <Bt_TWSCallBack+0x264>
			{
				//gBRState.gcount2++;
				SYS_SetTimer(&gSwithMasterTimer, 10, TIMER_SINGLE, CB_SwitchToMaster);
				//Bt_SndCmdTwsSwitchToMaster();	
			}
			else if (gBRState.twsState == BR_TWS_MASTER_CONNECTED){
    1ea4:	4b28      	ldr	r3, [pc, #160]	; (1f48 <Bt_TWSCallBack+0x270>)
    1ea6:	7edb      	ldrb	r3, [r3, #27]
    1ea8:	2b17      	cmp	r3, #23
    1eaa:	d147      	bne.n	1f3c <Bt_TWSCallBack+0x264>
				SYS_ReleaseTimer(&gChargerIn_timer);
    1eac:	4b2e      	ldr	r3, [pc, #184]	; (1f68 <Bt_TWSCallBack+0x290>)
    1eae:	0018      	movs	r0, r3
    1eb0:	f002 f8d6 	bl	4060 <SYS_ReleaseTimer>
				Bat_CbChargerIn(0);
    1eb4:	2000      	movs	r0, #0
    1eb6:	f007 fbf3 	bl	96a0 <Bat_CbChargerIn>
			}
			break;
    1eba:	e03f      	b.n	1f3c <Bt_TWSCallBack+0x264>
		#ifdef AUDIO_SYNC_DEF
		case TWS_SYNC_EVT_RESET_AUDIO:
			tws_user_reset_audio_action();
    1ebc:	f000 ff34 	bl	2d28 <tws_user_reset_audio_action>
			break;
    1ec0:	e03f      	b.n	1f42 <Bt_TWSCallBack+0x26a>
		case TWS_SYNC_EVT_SLAVE_RESET_AUDIO:
			// Need check need do or not
			if(g_tws_reset_flag != TWS_RESET_FLAG_NONE)
    1ec2:	4b2c      	ldr	r3, [pc, #176]	; (1f74 <Bt_TWSCallBack+0x29c>)
    1ec4:	781b      	ldrb	r3, [r3, #0]
    1ec6:	2b00      	cmp	r3, #0
    1ec8:	d001      	beq.n	1ece <Bt_TWSCallBack+0x1f6>
			{
				// Becouse we are in error buffer state, we will send reset audio message after while.
				DEBUG_LOG(LOG_LEVEL_CORE, "IPC" ,"check and send reset audio message, error reset_flag: 0x%04X", LOG_POINT_B013, g_tws_reset_flag);
    1eca:	46c0      	nop			; (mov r8, r8)
				
				return;
    1ecc:	e039      	b.n	1f42 <Bt_TWSCallBack+0x26a>
			}
			if(HREAD(mem_enable_start_sync) != 0)
    1ece:	4b2a      	ldr	r3, [pc, #168]	; (1f78 <Bt_TWSCallBack+0x2a0>)
    1ed0:	781b      	ldrb	r3, [r3, #0]
    1ed2:	b2db      	uxtb	r3, r3
    1ed4:	2b00      	cmp	r3, #0
    1ed6:	d001      	beq.n	1edc <Bt_TWSCallBack+0x204>
			{
				// Becouse we are in start sync.
				DEBUG_LOG(LOG_LEVEL_CORE, "IPC" ,"check and send reset audio message, error mem_enable_start_sync: 0x%04X", LOG_POINT_B014, HREAD(mem_enable_start_sync));
    1ed8:	46c0      	nop			; (mov r8, r8)
				return;
    1eda:	e032      	b.n	1f42 <Bt_TWSCallBack+0x26a>
			}
			
			Bt_SndCmdResetAudio();
    1edc:	f000 fe68 	bl	2bb0 <Bt_SndCmdResetAudio>
			break;
    1ee0:	e02f      	b.n	1f42 <Bt_TWSCallBack+0x26a>
		case TWS_SYNC_EVT_UPDATE_AUDIO_PROCESS_INFO:
			tws_user_process_audio_info();
    1ee2:	f000 ffed 	bl	2ec0 <tws_user_process_audio_info>
			break;
    1ee6:	e02c      	b.n	1f42 <Bt_TWSCallBack+0x26a>
		case TWS_SYNC_EVT_AUDIO_PROCESS_INFO:
			tws_user_process_remote_audio_info();
    1ee8:	f001 f86c 	bl	2fc4 <tws_user_process_remote_audio_info>
			break;
    1eec:	e029      	b.n	1f42 <Bt_TWSCallBack+0x26a>
		case TWS_SYNC_EVT_HFP_START_SYNC:
			tws_user_hfp_start_sync_action();
    1eee:	f000 ff77 	bl	2de0 <tws_user_hfp_start_sync_action>
			break;
    1ef2:	e026      	b.n	1f42 <Bt_TWSCallBack+0x26a>
		case TWS_SYNC_EVT_ALL_PROFILE_DISCONNECTED:
			if(gBRState.twsState == BR_TWS_SLAVE_CONNECTED)
    1ef4:	4b14      	ldr	r3, [pc, #80]	; (1f48 <Bt_TWSCallBack+0x270>)
    1ef6:	7edb      	ldrb	r3, [r3, #27]
    1ef8:	2b16      	cmp	r3, #22
    1efa:	d106      	bne.n	1f0a <Bt_TWSCallBack+0x232>
			{
				if (gBRState.secondState >= BR_CONNECTING)
    1efc:	4b12      	ldr	r3, [pc, #72]	; (1f48 <Bt_TWSCallBack+0x270>)
    1efe:	7e5b      	ldrb	r3, [r3, #25]
    1f00:	2b08      	cmp	r3, #8
    1f02:	d91d      	bls.n	1f40 <Bt_TWSCallBack+0x268>
				{
					Bt_SndCmdDisconnect();
    1f04:	f000 fa98 	bl	2438 <Bt_SndCmdDisconnect>
			}
			else if(gBRState.twsState == BR_TWS_MASTER_CONNECTED)
			{
				Bt_SndCmdWaitTwsSlave();
			}
			break;
    1f08:	e01a      	b.n	1f40 <Bt_TWSCallBack+0x268>
				if (gBRState.secondState >= BR_CONNECTING)
				{
					Bt_SndCmdDisconnect();
				}
			}
			else if(gBRState.twsState == BR_TWS_MASTER_CONNECTED)
    1f0a:	4b0f      	ldr	r3, [pc, #60]	; (1f48 <Bt_TWSCallBack+0x270>)
    1f0c:	7edb      	ldrb	r3, [r3, #27]
    1f0e:	2b17      	cmp	r3, #23
    1f10:	d116      	bne.n	1f40 <Bt_TWSCallBack+0x268>
			{
				Bt_SndCmdWaitTwsSlave();
    1f12:	f001 fa0d 	bl	3330 <Bt_SndCmdWaitTwsSlave>
			}
			break;
    1f16:	e013      	b.n	1f40 <Bt_TWSCallBack+0x268>
		case TWS_SYNC_EVT_DROP_ONE_PACKET:
			gIsDropInProcess = TWS_DROP_PROCESS_STATE_WAIT_DROP;
    1f18:	4b18      	ldr	r3, [pc, #96]	; (1f7c <Bt_TWSCallBack+0x2a4>)
    1f1a:	2253      	movs	r2, #83	; 0x53
    1f1c:	701a      	strb	r2, [r3, #0]
			break;
    1f1e:	e010      	b.n	1f42 <Bt_TWSCallBack+0x26a>
		case TWS_EVT_SLAVE_CHANGE_MASTER_NO_CON:
			gBRState.twsState = BR_IDLE;
    1f20:	4b09      	ldr	r3, [pc, #36]	; (1f48 <Bt_TWSCallBack+0x270>)
    1f22:	2205      	movs	r2, #5
    1f24:	76da      	strb	r2, [r3, #27]
			Bt_CheckReconnectAction();
    1f26:	f000 f9e7 	bl	22f8 <Bt_CheckReconnectAction>
			break;
    1f2a:	e00a      	b.n	1f42 <Bt_TWSCallBack+0x26a>
void Bt_TWSCallBack(uint8_t len,uint8_t *dataPtr)
{
	DEBUG_LOG_2(LOG_LEVEL_CORE, "IPC" ,"Bt_TWSCallBack: 0x%04X", LOG_POINT_9008, *dataPtr, gBRState.twsState);
	DEBUG_LOG_2(LOG_LEVEL_CORE, "IPC" ,"Bt_TWSCallBack: 0x%04X", LOG_POINT_9009, gBRState.topState, gBRState.secondState);
	if (gBRState.topState <= BR_CHARGER_IN)
		return;
    1f2c:	46c0      	nop			; (mov r8, r8)
    1f2e:	e008      	b.n	1f42 <Bt_TWSCallBack+0x26a>
			gBRState.twsState = BR_IDLE;
			Bt_CheckReconnectAction();
			break;
		#endif //AUDIO_SYNC_DEF
		default:
			break;
    1f30:	46c0      	nop			; (mov r8, r8)
    1f32:	e006      	b.n	1f42 <Bt_TWSCallBack+0x26a>
		case TWS_EVT_PAIR_SUCCESS:
			VP_snd_voiceEvt(VP_TWS_CONNECTED);
			Bt_ProcessLedFunc(LED_EVT_TWS_PARED);
			if (HREAD(REG_B_TWS_ROLE) == TWS_SET_MASTER)
				Bt_CheckReconnectAction(); 
			break;
    1f34:	46c0      	nop			; (mov r8, r8)
    1f36:	e004      	b.n	1f42 <Bt_TWSCallBack+0x26a>
			if (gBRState.twsState == BR_TWS_RECON)
			{
				gBRState.twsState = BR_IDLE;
				Bt_CheckReconnectAction();
			}
			break;
    1f38:	46c0      	nop			; (mov r8, r8)
    1f3a:	e002      	b.n	1f42 <Bt_TWSCallBack+0x26a>
			}
			else if (gBRState.twsState == BR_TWS_MASTER_CONNECTED){
				SYS_ReleaseTimer(&gChargerIn_timer);
				Bat_CbChargerIn(0);
			}
			break;
    1f3c:	46c0      	nop			; (mov r8, r8)
    1f3e:	e000      	b.n	1f42 <Bt_TWSCallBack+0x26a>
			}
			else if(gBRState.twsState == BR_TWS_MASTER_CONNECTED)
			{
				Bt_SndCmdWaitTwsSlave();
			}
			break;
    1f40:	46c0      	nop			; (mov r8, r8)
			break;
		#endif //AUDIO_SYNC_DEF
		default:
			break;
	}
}
    1f42:	46bd      	mov	sp, r7
    1f44:	b002      	add	sp, #8
    1f46:	bd80      	pop	{r7, pc}
    1f48:	100108b0 	.word	0x100108b0
    1f4c:	0000b658 	.word	0x0000b658
    1f50:	100049d5 	.word	0x100049d5
    1f54:	00000cd1 	.word	0x00000cd1
    1f58:	1001082c 	.word	0x1001082c
    1f5c:	10004296 	.word	0x10004296
    1f60:	10010862 	.word	0x10010862
    1f64:	100049b2 	.word	0x100049b2
    1f68:	10010c98 	.word	0x10010c98
    1f6c:	00002701 	.word	0x00002701
    1f70:	10010848 	.word	0x10010848
    1f74:	10010930 	.word	0x10010930
    1f78:	10004ba8 	.word	0x10004ba8
    1f7c:	100107ed 	.word	0x100107ed

00001f80 <Bt_checkBleIsConnected>:

uint8_t Bt_checkBleIsConnected()
{
    1f80:	b580      	push	{r7, lr}
    1f82:	af00      	add	r7, sp, #0
	if(gBLEState.topState == BLE_CONNECTED)
    1f84:	4b04      	ldr	r3, [pc, #16]	; (1f98 <Bt_checkBleIsConnected+0x18>)
    1f86:	781b      	ldrb	r3, [r3, #0]
    1f88:	2b04      	cmp	r3, #4
    1f8a:	d101      	bne.n	1f90 <Bt_checkBleIsConnected+0x10>
		return 1;
    1f8c:	2301      	movs	r3, #1
    1f8e:	e000      	b.n	1f92 <Bt_checkBleIsConnected+0x12>
	return 0;
    1f90:	2300      	movs	r3, #0
}
    1f92:	0018      	movs	r0, r3
    1f94:	46bd      	mov	sp, r7
    1f96:	bd80      	pop	{r7, pc}
    1f98:	10010860 	.word	0x10010860

00001f9c <Bt_checkBRIsConnected>:

uint8_t Bt_checkBRIsConnected()
{
    1f9c:	b580      	push	{r7, lr}
    1f9e:	af00      	add	r7, sp, #0
	if(gBRState.topState == BR_POWER_ON && gBRState.secondState == BR_CONNECTED)
    1fa0:	4b06      	ldr	r3, [pc, #24]	; (1fbc <Bt_checkBRIsConnected+0x20>)
    1fa2:	7e1b      	ldrb	r3, [r3, #24]
    1fa4:	2b04      	cmp	r3, #4
    1fa6:	d105      	bne.n	1fb4 <Bt_checkBRIsConnected+0x18>
    1fa8:	4b04      	ldr	r3, [pc, #16]	; (1fbc <Bt_checkBRIsConnected+0x20>)
    1faa:	7e5b      	ldrb	r3, [r3, #25]
    1fac:	2b0a      	cmp	r3, #10
    1fae:	d101      	bne.n	1fb4 <Bt_checkBRIsConnected+0x18>
		return 1;
    1fb0:	2301      	movs	r3, #1
    1fb2:	e000      	b.n	1fb6 <Bt_checkBRIsConnected+0x1a>
	return 0;
    1fb4:	2300      	movs	r3, #0
}
    1fb6:	0018      	movs	r0, r3
    1fb8:	46bd      	mov	sp, r7
    1fba:	bd80      	pop	{r7, pc}
    1fbc:	100108b0 	.word	0x100108b0

00001fc0 <Bt_checkBRIsInDiscoverable>:

uint8_t Bt_checkBRIsInDiscoverable(void)
{
    1fc0:	b580      	push	{r7, lr}
    1fc2:	af00      	add	r7, sp, #0
	if(gBRState.topState == BR_POWER_ON && gBRState.thirdlyState == BR_DISCOVERABLE)
    1fc4:	4b06      	ldr	r3, [pc, #24]	; (1fe0 <Bt_checkBRIsInDiscoverable+0x20>)
    1fc6:	7e1b      	ldrb	r3, [r3, #24]
    1fc8:	2b04      	cmp	r3, #4
    1fca:	d105      	bne.n	1fd8 <Bt_checkBRIsInDiscoverable+0x18>
    1fcc:	4b04      	ldr	r3, [pc, #16]	; (1fe0 <Bt_checkBRIsInDiscoverable+0x20>)
    1fce:	7e9b      	ldrb	r3, [r3, #26]
    1fd0:	2b07      	cmp	r3, #7
    1fd2:	d101      	bne.n	1fd8 <Bt_checkBRIsInDiscoverable+0x18>
		return 1;
    1fd4:	2301      	movs	r3, #1
    1fd6:	e000      	b.n	1fda <Bt_checkBRIsInDiscoverable+0x1a>
	return 0;
    1fd8:	2300      	movs	r3, #0
}
    1fda:	0018      	movs	r0, r3
    1fdc:	46bd      	mov	sp, r7
    1fde:	bd80      	pop	{r7, pc}
    1fe0:	100108b0 	.word	0x100108b0

00001fe4 <Bt_CheckWaitPwroff>:

void Bt_CheckWaitPwroff()
{
    1fe4:	b580      	push	{r7, lr}
    1fe6:	af00      	add	r7, sp, #0
	if (Lpm_CheckLpmFlag())
    1fe8:	f004 feb8 	bl	6d5c <Lpm_CheckLpmFlag>
    1fec:	1e03      	subs	r3, r0, #0
    1fee:	d00d      	beq.n	200c <Bt_CheckWaitPwroff+0x28>
	{
		//no detecte key action,then enter hibernate
		if(gBRState.topState == BR_WAIT_POWER_ON ||
    1ff0:	4b08      	ldr	r3, [pc, #32]	; (2014 <Bt_CheckWaitPwroff+0x30>)
    1ff2:	7e1b      	ldrb	r3, [r3, #24]
    1ff4:	2b03      	cmp	r3, #3
    1ff6:	d003      	beq.n	2000 <Bt_CheckWaitPwroff+0x1c>
			gBRState.topState == BR_WAIT_POWER_OFF)
    1ff8:	4b06      	ldr	r3, [pc, #24]	; (2014 <Bt_CheckWaitPwroff+0x30>)
    1ffa:	7e1b      	ldrb	r3, [r3, #24]
void Bt_CheckWaitPwroff()
{
	if (Lpm_CheckLpmFlag())
	{
		//no detecte key action,then enter hibernate
		if(gBRState.topState == BR_WAIT_POWER_ON ||
    1ffc:	2b01      	cmp	r3, #1
    1ffe:	d105      	bne.n	200c <Bt_CheckWaitPwroff+0x28>
			gBRState.topState == BR_WAIT_POWER_OFF)
		{
			SYS_ReleaseTimer(&gBRState.autoPowerTimer);
    2000:	4b04      	ldr	r3, [pc, #16]	; (2014 <Bt_CheckWaitPwroff+0x30>)
    2002:	0018      	movs	r0, r3
    2004:	f002 f82c 	bl	4060 <SYS_ReleaseTimer>
			Bt_SndCmdPwroff();
    2008:	f000 f990 	bl	232c <Bt_SndCmdPwroff>
		}
	}
}
    200c:	46c0      	nop			; (mov r8, r8)
    200e:	46bd      	mov	sp, r7
    2010:	bd80      	pop	{r7, pc}
    2012:	46c0      	nop			; (mov r8, r8)
    2014:	100108b0 	.word	0x100108b0

00002018 <Bt_CBIdleTimeout>:

void Bt_CBIdleTimeout(int prams)
{
    2018:	b580      	push	{r7, lr}
    201a:	b082      	sub	sp, #8
    201c:	af00      	add	r7, sp, #0
    201e:	6078      	str	r0, [r7, #4]
  	Bt_SndCmdWaitPwroff();
    2020:	f000 f9ba 	bl	2398 <Bt_SndCmdWaitPwroff>
}
    2024:	46c0      	nop			; (mov r8, r8)
    2026:	46bd      	mov	sp, r7
    2028:	b002      	add	sp, #8
    202a:	bd80      	pop	{r7, pc}

0000202c <Bt_CBAutoPwroff>:

void Bt_CBAutoPwroff(int paras)
{
    202c:	b580      	push	{r7, lr}
    202e:	b084      	sub	sp, #16
    2030:	af00      	add	r7, sp, #0
    2032:	6078      	str	r0, [r7, #4]
	if (Lpm_CheckLpmFlag())
    2034:	f004 fe92 	bl	6d5c <Lpm_CheckLpmFlag>
    2038:	1e03      	subs	r3, r0, #0
    203a:	d011      	beq.n	2060 <Bt_CBAutoPwroff+0x34>
	{
		if (gBRState.topState == BR_WAIT_POWER_ON ||
    203c:	4b18      	ldr	r3, [pc, #96]	; (20a0 <Bt_CBAutoPwroff+0x74>)
    203e:	7e1b      	ldrb	r3, [r3, #24]
    2040:	2b03      	cmp	r3, #3
    2042:	d003      	beq.n	204c <Bt_CBAutoPwroff+0x20>
			gBRState.topState == BR_WAIT_POWER_OFF){
    2044:	4b16      	ldr	r3, [pc, #88]	; (20a0 <Bt_CBAutoPwroff+0x74>)
    2046:	7e1b      	ldrb	r3, [r3, #24]

void Bt_CBAutoPwroff(int paras)
{
	if (Lpm_CheckLpmFlag())
	{
		if (gBRState.topState == BR_WAIT_POWER_ON ||
    2048:	2b01      	cmp	r3, #1
    204a:	d102      	bne.n	2052 <Bt_CBAutoPwroff+0x26>
			gBRState.topState == BR_WAIT_POWER_OFF){
			Bt_SndCmdPwroff();
    204c:	f000 f96e 	bl	232c <Bt_SndCmdPwroff>
		else
		{
			Bt_SndCmdPwroff();
		}
	}
}
    2050:	e021      	b.n	2096 <Bt_CBAutoPwroff+0x6a>
	{
		if (gBRState.topState == BR_WAIT_POWER_ON ||
			gBRState.topState == BR_WAIT_POWER_OFF){
			Bt_SndCmdPwroff();
		}
		else if (gBRState.topState == BR_POWER_ON){
    2052:	4b13      	ldr	r3, [pc, #76]	; (20a0 <Bt_CBAutoPwroff+0x74>)
    2054:	7e1b      	ldrb	r3, [r3, #24]
    2056:	2b04      	cmp	r3, #4
    2058:	d11d      	bne.n	2096 <Bt_CBAutoPwroff+0x6a>
			Bt_SndCmdWaitPwroff();
    205a:	f000 f99d 	bl	2398 <Bt_SndCmdWaitPwroff>
		else
		{
			Bt_SndCmdPwroff();
		}
	}
}
    205e:	e01a      	b.n	2096 <Bt_CBAutoPwroff+0x6a>
		}
	}
	else
	{
		//for disconect link/enter hibernate delay some time
		uint16_t lpm=(uint16_t)( ~IGNORE_LPM_FLAG);
    2060:	230e      	movs	r3, #14
    2062:	18fb      	adds	r3, r7, r3
    2064:	2291      	movs	r2, #145	; 0x91
    2066:	4252      	negs	r2, r2
    2068:	801a      	strh	r2, [r3, #0]
		if (lpm & HR_REG_16BIT(reg_map(M0_LPM_REG)))
    206a:	4b0e      	ldr	r3, [pc, #56]	; (20a4 <Bt_CBAutoPwroff+0x78>)
    206c:	0018      	movs	r0, r3
    206e:	f004 fd9f 	bl	6bb0 <HR_REG_16BIT>
    2072:	0003      	movs	r3, r0
    2074:	001a      	movs	r2, r3
    2076:	230e      	movs	r3, #14
    2078:	18fb      	adds	r3, r7, r3
    207a:	881b      	ldrh	r3, [r3, #0]
    207c:	4013      	ands	r3, r2
    207e:	b29b      	uxth	r3, r3
    2080:	2b00      	cmp	r3, #0
    2082:	d006      	beq.n	2092 <Bt_CBAutoPwroff+0x66>
		{
			SYS_SetTimer(&gBRState.autoPowerTimer,
    2084:	4b08      	ldr	r3, [pc, #32]	; (20a8 <Bt_CBAutoPwroff+0x7c>)
    2086:	4806      	ldr	r0, [pc, #24]	; (20a0 <Bt_CBAutoPwroff+0x74>)
    2088:	2200      	movs	r2, #0
    208a:	2103      	movs	r1, #3
    208c:	f001 feb2 	bl	3df4 <SYS_SetTimer>
		else
		{
			Bt_SndCmdPwroff();
		}
	}
}
    2090:	e001      	b.n	2096 <Bt_CBAutoPwroff+0x6a>
				TIMER_SINGLE,
				Bt_CBAutoPwroff);
		}
		else
		{
			Bt_SndCmdPwroff();
    2092:	f000 f94b 	bl	232c <Bt_SndCmdPwroff>
		}
	}
}
    2096:	46c0      	nop			; (mov r8, r8)
    2098:	46bd      	mov	sp, r7
    209a:	b004      	add	sp, #16
    209c:	bd80      	pop	{r7, pc}
    209e:	46c0      	nop			; (mov r8, r8)
    20a0:	100108b0 	.word	0x100108b0
    20a4:	10004b07 	.word	0x10004b07
    20a8:	0000202d 	.word	0x0000202d

000020ac <Bt_ResetAutoPwroffTimer>:

void Bt_ResetAutoPwroffTimer()
{
    20ac:	b580      	push	{r7, lr}
    20ae:	af00      	add	r7, sp, #0
	if (gBRState.topState >= BR_WAIT_POWER_ON)
    20b0:	4b07      	ldr	r3, [pc, #28]	; (20d0 <Bt_ResetAutoPwroffTimer+0x24>)
    20b2:	7e1b      	ldrb	r3, [r3, #24]
    20b4:	2b02      	cmp	r3, #2
    20b6:	d907      	bls.n	20c8 <Bt_ResetAutoPwroffTimer+0x1c>
	{
		if (gBRState.secondState != BR_CONNECTED)
    20b8:	4b05      	ldr	r3, [pc, #20]	; (20d0 <Bt_ResetAutoPwroffTimer+0x24>)
    20ba:	7e5b      	ldrb	r3, [r3, #25]
    20bc:	2b0a      	cmp	r3, #10
    20be:	d003      	beq.n	20c8 <Bt_ResetAutoPwroffTimer+0x1c>
			SYS_ResetTimer(&gBRState.autoPowerTimer);
    20c0:	4b03      	ldr	r3, [pc, #12]	; (20d0 <Bt_ResetAutoPwroffTimer+0x24>)
    20c2:	0018      	movs	r0, r3
    20c4:	f001 ff16 	bl	3ef4 <SYS_ResetTimer>
	}
}
    20c8:	46c0      	nop			; (mov r8, r8)
    20ca:	46bd      	mov	sp, r7
    20cc:	bd80      	pop	{r7, pc}
    20ce:	46c0      	nop			; (mov r8, r8)
    20d0:	100108b0 	.word	0x100108b0

000020d4 <Bt_SetAutoPwroffTimer>:

void Bt_SetAutoPwroffTimer(uint32_t count,bool type,Timer_Expire_CB pfExpire_CB)
{	
    20d4:	b580      	push	{r7, lr}
    20d6:	b084      	sub	sp, #16
    20d8:	af00      	add	r7, sp, #0
    20da:	60f8      	str	r0, [r7, #12]
    20dc:	607a      	str	r2, [r7, #4]
    20de:	230b      	movs	r3, #11
    20e0:	18fb      	adds	r3, r7, r3
    20e2:	1c0a      	adds	r2, r1, #0
    20e4:	701a      	strb	r2, [r3, #0]
	//Bt_CBAutoPwroff
	if (gBRState.topState >= BR_WAIT_POWER_ON)
    20e6:	4b0d      	ldr	r3, [pc, #52]	; (211c <Bt_SetAutoPwroffTimer+0x48>)
    20e8:	7e1b      	ldrb	r3, [r3, #24]
    20ea:	2b02      	cmp	r3, #2
    20ec:	d911      	bls.n	2112 <Bt_SetAutoPwroffTimer+0x3e>
	{
		if (type){
    20ee:	230b      	movs	r3, #11
    20f0:	18fb      	adds	r3, r7, r3
    20f2:	781b      	ldrb	r3, [r3, #0]
    20f4:	2b00      	cmp	r3, #0
    20f6:	d006      	beq.n	2106 <Bt_SetAutoPwroffTimer+0x32>
			SYS_SetTimer(&gBRState.autoPowerTimer,
    20f8:	68f9      	ldr	r1, [r7, #12]
    20fa:	687b      	ldr	r3, [r7, #4]
    20fc:	4807      	ldr	r0, [pc, #28]	; (211c <Bt_SetAutoPwroffTimer+0x48>)
    20fe:	2200      	movs	r2, #0
    2100:	f001 fe78 	bl	3df4 <SYS_SetTimer>
				count,
				TIMER_SINGLE|TIMER_TYPE_BIT,
				pfExpire_CB);
		}
	}
}
    2104:	e005      	b.n	2112 <Bt_SetAutoPwroffTimer+0x3e>
				count,
				TIMER_SINGLE,
				pfExpire_CB);
		}
		else{
			SYS_SetTimer(&gBRState.autoPowerTimer,
    2106:	68f9      	ldr	r1, [r7, #12]
    2108:	687b      	ldr	r3, [r7, #4]
    210a:	4804      	ldr	r0, [pc, #16]	; (211c <Bt_SetAutoPwroffTimer+0x48>)
    210c:	2280      	movs	r2, #128	; 0x80
    210e:	f001 fe71 	bl	3df4 <SYS_SetTimer>
				count,
				TIMER_SINGLE|TIMER_TYPE_BIT,
				pfExpire_CB);
		}
	}
}
    2112:	46c0      	nop			; (mov r8, r8)
    2114:	46bd      	mov	sp, r7
    2116:	b004      	add	sp, #16
    2118:	bd80      	pop	{r7, pc}
    211a:	46c0      	nop			; (mov r8, r8)
    211c:	100108b0 	.word	0x100108b0

00002120 <Bt_checkReconInfoCRC>:

bool Bt_checkReconInfoCRC()
{
    2120:	b580      	push	{r7, lr}
    2122:	b082      	sub	sp, #8
    2124:	af00      	add	r7, sp, #0
	uint16_t i,crc_value,sum=0;
    2126:	1d3b      	adds	r3, r7, #4
    2128:	2200      	movs	r2, #0
    212a:	801a      	strh	r2, [r3, #0]
	uint16_t addr = mem_nv_data;
    212c:	1cbb      	adds	r3, r7, #2
    212e:	4a2f      	ldr	r2, [pc, #188]	; (21ec <Bt_checkReconInfoCRC+0xcc>)
    2130:	801a      	strh	r2, [r3, #0]
	
	//for(i = 0; i< sizeof(BT_REC_INFO)-2; i++)
	for(i = 0; i < 36; i++)
    2132:	1dbb      	adds	r3, r7, #6
    2134:	2200      	movs	r2, #0
    2136:	801a      	strh	r2, [r3, #0]
    2138:	e014      	b.n	2164 <Bt_checkReconInfoCRC+0x44>
		sum = sum + HREAD(addr+i);
    213a:	1cbb      	adds	r3, r7, #2
    213c:	881a      	ldrh	r2, [r3, #0]
    213e:	1dbb      	adds	r3, r7, #6
    2140:	881b      	ldrh	r3, [r3, #0]
    2142:	18d3      	adds	r3, r2, r3
    2144:	2280      	movs	r2, #128	; 0x80
    2146:	0552      	lsls	r2, r2, #21
    2148:	4313      	orrs	r3, r2
    214a:	781b      	ldrb	r3, [r3, #0]
    214c:	b2db      	uxtb	r3, r3
    214e:	b299      	uxth	r1, r3
    2150:	1d3b      	adds	r3, r7, #4
    2152:	1d3a      	adds	r2, r7, #4
    2154:	8812      	ldrh	r2, [r2, #0]
    2156:	188a      	adds	r2, r1, r2
    2158:	801a      	strh	r2, [r3, #0]
{
	uint16_t i,crc_value,sum=0;
	uint16_t addr = mem_nv_data;
	
	//for(i = 0; i< sizeof(BT_REC_INFO)-2; i++)
	for(i = 0; i < 36; i++)
    215a:	1dbb      	adds	r3, r7, #6
    215c:	881a      	ldrh	r2, [r3, #0]
    215e:	1dbb      	adds	r3, r7, #6
    2160:	3201      	adds	r2, #1
    2162:	801a      	strh	r2, [r3, #0]
    2164:	1dbb      	adds	r3, r7, #6
    2166:	881b      	ldrh	r3, [r3, #0]
    2168:	2b23      	cmp	r3, #35	; 0x23
    216a:	d9e6      	bls.n	213a <Bt_checkReconInfoCRC+0x1a>
		sum = sum + HREAD(addr+i);
		

	crc_value = HREADW(addr+i);
    216c:	1cbb      	adds	r3, r7, #2
    216e:	881a      	ldrh	r2, [r3, #0]
    2170:	1dbb      	adds	r3, r7, #6
    2172:	881b      	ldrh	r3, [r3, #0]
    2174:	18d3      	adds	r3, r2, r3
    2176:	2280      	movs	r2, #128	; 0x80
    2178:	0552      	lsls	r2, r2, #21
    217a:	4313      	orrs	r3, r2
    217c:	781b      	ldrb	r3, [r3, #0]
    217e:	b2db      	uxtb	r3, r3
    2180:	b21a      	sxth	r2, r3
    2182:	1cbb      	adds	r3, r7, #2
    2184:	8819      	ldrh	r1, [r3, #0]
    2186:	1dbb      	adds	r3, r7, #6
    2188:	881b      	ldrh	r3, [r3, #0]
    218a:	18cb      	adds	r3, r1, r3
    218c:	3301      	adds	r3, #1
    218e:	2180      	movs	r1, #128	; 0x80
    2190:	0549      	lsls	r1, r1, #21
    2192:	430b      	orrs	r3, r1
    2194:	781b      	ldrb	r3, [r3, #0]
    2196:	b2db      	uxtb	r3, r3
    2198:	021b      	lsls	r3, r3, #8
    219a:	b21b      	sxth	r3, r3
    219c:	4313      	orrs	r3, r2
    219e:	b21a      	sxth	r2, r3
    21a0:	003b      	movs	r3, r7
    21a2:	801a      	strh	r2, [r3, #0]
	if (crc_value == sum)
    21a4:	003a      	movs	r2, r7
    21a6:	1d3b      	adds	r3, r7, #4
    21a8:	8812      	ldrh	r2, [r2, #0]
    21aa:	881b      	ldrh	r3, [r3, #0]
    21ac:	429a      	cmp	r2, r3
    21ae:	d101      	bne.n	21b4 <Bt_checkReconInfoCRC+0x94>
		return true;
    21b0:	2301      	movs	r3, #1
    21b2:	e017      	b.n	21e4 <Bt_checkReconInfoCRC+0xc4>

	//for(i = 0; i < sizeof(BT_REC_INFO); i++)
	for(i = 0; i < 36+2; i++)
    21b4:	1dbb      	adds	r3, r7, #6
    21b6:	2200      	movs	r2, #0
    21b8:	801a      	strh	r2, [r3, #0]
    21ba:	e00e      	b.n	21da <Bt_checkReconInfoCRC+0xba>
		HWRITE(addr+i,0xff);
    21bc:	1cbb      	adds	r3, r7, #2
    21be:	881a      	ldrh	r2, [r3, #0]
    21c0:	1dbb      	adds	r3, r7, #6
    21c2:	881b      	ldrh	r3, [r3, #0]
    21c4:	18d3      	adds	r3, r2, r3
    21c6:	2280      	movs	r2, #128	; 0x80
    21c8:	0552      	lsls	r2, r2, #21
    21ca:	4313      	orrs	r3, r2
    21cc:	22ff      	movs	r2, #255	; 0xff
    21ce:	701a      	strb	r2, [r3, #0]
	crc_value = HREADW(addr+i);
	if (crc_value == sum)
		return true;

	//for(i = 0; i < sizeof(BT_REC_INFO); i++)
	for(i = 0; i < 36+2; i++)
    21d0:	1dbb      	adds	r3, r7, #6
    21d2:	881a      	ldrh	r2, [r3, #0]
    21d4:	1dbb      	adds	r3, r7, #6
    21d6:	3201      	adds	r2, #1
    21d8:	801a      	strh	r2, [r3, #0]
    21da:	1dbb      	adds	r3, r7, #6
    21dc:	881b      	ldrh	r3, [r3, #0]
    21de:	2b25      	cmp	r3, #37	; 0x25
    21e0:	d9ec      	bls.n	21bc <Bt_checkReconInfoCRC+0x9c>
		HWRITE(addr+i,0xff);
	return false;
    21e2:	2300      	movs	r3, #0
}
    21e4:	0018      	movs	r0, r3
    21e6:	46bd      	mov	sp, r7
    21e8:	b002      	add	sp, #8
    21ea:	bd80      	pop	{r7, pc}
    21ec:	000049b2 	.word	0x000049b2

000021f0 <Bt_calReconInfoCRC>:

void Bt_calReconInfoCRC()
{
    21f0:	b580      	push	{r7, lr}
    21f2:	b082      	sub	sp, #8
    21f4:	af00      	add	r7, sp, #0
	uint16_t i, crc_value,sum=0;
    21f6:	1d3b      	adds	r3, r7, #4
    21f8:	2200      	movs	r2, #0
    21fa:	801a      	strh	r2, [r3, #0]
	uint16_t addr = mem_nv_data;
    21fc:	1cbb      	adds	r3, r7, #2
    21fe:	4a20      	ldr	r2, [pc, #128]	; (2280 <Bt_calReconInfoCRC+0x90>)
    2200:	801a      	strh	r2, [r3, #0]
	
	for(i = 0; i < sizeof(BT_REC_INFO)-2; i++)
    2202:	1dbb      	adds	r3, r7, #6
    2204:	2200      	movs	r2, #0
    2206:	801a      	strh	r2, [r3, #0]
    2208:	e014      	b.n	2234 <Bt_calReconInfoCRC+0x44>
	//for(i = 0; i < 36; i++)
		sum = sum + HREAD(addr+i);
    220a:	1cbb      	adds	r3, r7, #2
    220c:	881a      	ldrh	r2, [r3, #0]
    220e:	1dbb      	adds	r3, r7, #6
    2210:	881b      	ldrh	r3, [r3, #0]
    2212:	18d3      	adds	r3, r2, r3
    2214:	2280      	movs	r2, #128	; 0x80
    2216:	0552      	lsls	r2, r2, #21
    2218:	4313      	orrs	r3, r2
    221a:	781b      	ldrb	r3, [r3, #0]
    221c:	b2db      	uxtb	r3, r3
    221e:	b299      	uxth	r1, r3
    2220:	1d3b      	adds	r3, r7, #4
    2222:	1d3a      	adds	r2, r7, #4
    2224:	8812      	ldrh	r2, [r2, #0]
    2226:	188a      	adds	r2, r1, r2
    2228:	801a      	strh	r2, [r3, #0]
void Bt_calReconInfoCRC()
{
	uint16_t i, crc_value,sum=0;
	uint16_t addr = mem_nv_data;
	
	for(i = 0; i < sizeof(BT_REC_INFO)-2; i++)
    222a:	1dbb      	adds	r3, r7, #6
    222c:	881a      	ldrh	r2, [r3, #0]
    222e:	1dbb      	adds	r3, r7, #6
    2230:	3201      	adds	r2, #1
    2232:	801a      	strh	r2, [r3, #0]
    2234:	1dbb      	adds	r3, r7, #6
    2236:	881b      	ldrh	r3, [r3, #0]
    2238:	2b23      	cmp	r3, #35	; 0x23
    223a:	d9e6      	bls.n	220a <Bt_calReconInfoCRC+0x1a>
	//for(i = 0; i < 36; i++)
		sum = sum + HREAD(addr+i);

	HWRITEW((addr+i),sum);
    223c:	1cbb      	adds	r3, r7, #2
    223e:	881a      	ldrh	r2, [r3, #0]
    2240:	1dbb      	adds	r3, r7, #6
    2242:	881b      	ldrh	r3, [r3, #0]
    2244:	18d3      	adds	r3, r2, r3
    2246:	2280      	movs	r2, #128	; 0x80
    2248:	0552      	lsls	r2, r2, #21
    224a:	4313      	orrs	r3, r2
    224c:	001a      	movs	r2, r3
    224e:	1d3b      	adds	r3, r7, #4
    2250:	881b      	ldrh	r3, [r3, #0]
    2252:	b2db      	uxtb	r3, r3
    2254:	7013      	strb	r3, [r2, #0]
    2256:	1cbb      	adds	r3, r7, #2
    2258:	881a      	ldrh	r2, [r3, #0]
    225a:	1dbb      	adds	r3, r7, #6
    225c:	881b      	ldrh	r3, [r3, #0]
    225e:	18d3      	adds	r3, r2, r3
    2260:	3301      	adds	r3, #1
    2262:	2280      	movs	r2, #128	; 0x80
    2264:	0552      	lsls	r2, r2, #21
    2266:	4313      	orrs	r3, r2
    2268:	001a      	movs	r2, r3
    226a:	1d3b      	adds	r3, r7, #4
    226c:	881b      	ldrh	r3, [r3, #0]
    226e:	0a1b      	lsrs	r3, r3, #8
    2270:	b29b      	uxth	r3, r3
    2272:	b2db      	uxtb	r3, r3
    2274:	7013      	strb	r3, [r2, #0]
}
    2276:	46c0      	nop			; (mov r8, r8)
    2278:	46bd      	mov	sp, r7
    227a:	b002      	add	sp, #8
    227c:	bd80      	pop	{r7, pc}
    227e:	46c0      	nop			; (mov r8, r8)
    2280:	000049b2 	.word	0x000049b2

00002284 <Bt_LoadReconnectInfo>:

void Bt_LoadReconnectInfo()
{
    2284:	b580      	push	{r7, lr}
    2286:	af00      	add	r7, sp, #0
	//todo
	QSPI_Init();
    2288:	f006 fae6 	bl	8858 <QSPI_Init>
  \details Disables IRQ interrupts by setting the I-bit in the CPSR.
  Can only be executed in Privileged modes.
 */
__attribute__( ( always_inline ) ) __STATIC_INLINE void __disable_irq(void)
{
  __ASM volatile ("cpsid i" : : : "memory");
    228c:	b672      	cpsid	i
	
	OS_ENTER_CRITICAL();
	SetLockQSPI( );
    228e:	f005 fcb7 	bl	7c00 <SetLockQSPI>
	setRamType(XRAM);
    2292:	2001      	movs	r0, #1
    2294:	f005 fcc8 	bl	7c28 <setRamType>
	QSPI_ReadFlashData(DEVICE_INFO_BASE,sizeof(BT_REC_INFO),(uint8_t *)gpRecinfo);
    2298:	4b06      	ldr	r3, [pc, #24]	; (22b4 <Bt_LoadReconnectInfo+0x30>)
    229a:	681a      	ldr	r2, [r3, #0]
    229c:	23fe      	movs	r3, #254	; 0xfe
    229e:	02db      	lsls	r3, r3, #11
    22a0:	2126      	movs	r1, #38	; 0x26
    22a2:	0018      	movs	r0, r3
    22a4:	f005 fdec 	bl	7e80 <QSPI_ReadFlashData>
	SetReleaseQSPI( );
    22a8:	f005 fcb4 	bl	7c14 <SetReleaseQSPI>
  \details Enables IRQ interrupts by clearing the I-bit in the CPSR.
           Can only be executed in Privileged modes.
 */
__attribute__( ( always_inline ) ) __STATIC_INLINE void __enable_irq(void)
{
  __ASM volatile ("cpsie i" : : : "memory");
    22ac:	b662      	cpsie	i
	OS_EXIT_CRITICAL();
}
    22ae:	46c0      	nop			; (mov r8, r8)
    22b0:	46bd      	mov	sp, r7
    22b2:	bd80      	pop	{r7, pc}
    22b4:	10010534 	.word	0x10010534

000022b8 <Bt_UpdateDeviceInfo>:

void Bt_UpdateDeviceInfo()
{
    22b8:	b580      	push	{r7, lr}
    22ba:	af00      	add	r7, sp, #0
	QSPI_Init();
    22bc:	f006 facc 	bl	8858 <QSPI_Init>
  \details Disables IRQ interrupts by setting the I-bit in the CPSR.
  Can only be executed in Privileged modes.
 */
__attribute__( ( always_inline ) ) __STATIC_INLINE void __disable_irq(void)
{
  __ASM volatile ("cpsid i" : : : "memory");
    22c0:	b672      	cpsid	i
	//todo
	OS_ENTER_CRITICAL();
	SetLockQSPI( );
    22c2:	f005 fc9d 	bl	7c00 <SetLockQSPI>
	setRamType(XRAM);
    22c6:	2001      	movs	r0, #1
    22c8:	f005 fcae 	bl	7c28 <setRamType>
	QSPI_SectorEraseFlash(DEVICE_INFO_BASE);
    22cc:	23fe      	movs	r3, #254	; 0xfe
    22ce:	02db      	lsls	r3, r3, #11
    22d0:	0018      	movs	r0, r3
    22d2:	f006 f9a5 	bl	8620 <QSPI_SectorEraseFlash>
	QSPI_WriteFlashData(DEVICE_INFO_BASE,sizeof(BT_REC_INFO),(uint8_t *)gpRecinfo);
    22d6:	4b07      	ldr	r3, [pc, #28]	; (22f4 <Bt_UpdateDeviceInfo+0x3c>)
    22d8:	681a      	ldr	r2, [r3, #0]
    22da:	23fe      	movs	r3, #254	; 0xfe
    22dc:	02db      	lsls	r3, r3, #11
    22de:	2126      	movs	r1, #38	; 0x26
    22e0:	0018      	movs	r0, r3
    22e2:	f005 ffad 	bl	8240 <QSPI_WriteFlashData>
	SetReleaseQSPI( );
    22e6:	f005 fc95 	bl	7c14 <SetReleaseQSPI>
  \details Enables IRQ interrupts by clearing the I-bit in the CPSR.
           Can only be executed in Privileged modes.
 */
__attribute__( ( always_inline ) ) __STATIC_INLINE void __enable_irq(void)
{
  __ASM volatile ("cpsie i" : : : "memory");
    22ea:	b662      	cpsie	i
	OS_EXIT_CRITICAL();
}
    22ec:	46c0      	nop			; (mov r8, r8)
    22ee:	46bd      	mov	sp, r7
    22f0:	bd80      	pop	{r7, pc}
    22f2:	46c0      	nop			; (mov r8, r8)
    22f4:	10010534 	.word	0x10010534

000022f8 <Bt_CheckReconnectAction>:

void Bt_CheckReconnectAction()
{
    22f8:	b580      	push	{r7, lr}
    22fa:	af00      	add	r7, sp, #0
		Bt_SndCmdWaitMaster();
		return;
	}
	**/

	if((HREAD(mem_tws_record_state)&0x0f) == 0x05)
    22fc:	4b09      	ldr	r3, [pc, #36]	; (2324 <Bt_CheckReconnectAction+0x2c>)
    22fe:	781b      	ldrb	r3, [r3, #0]
    2300:	b2db      	uxtb	r3, r3
    2302:	001a      	movs	r2, r3
    2304:	230f      	movs	r3, #15
    2306:	4013      	ands	r3, r2
    2308:	2b05      	cmp	r3, #5
    230a:	d105      	bne.n	2318 <Bt_CheckReconnectAction+0x20>
	{
		gReconCount = 2;
    230c:	4b06      	ldr	r3, [pc, #24]	; (2328 <Bt_CheckReconnectAction+0x30>)
    230e:	2202      	movs	r2, #2
    2310:	701a      	strb	r2, [r3, #0]
		Bt_SndCmdReconnect();
    2312:	f000 f8ab 	bl	246c <Bt_SndCmdReconnect>
	}
	else{
		Bt_SndCmdStartDiscovery();
	}

	return;
    2316:	e002      	b.n	231e <Bt_CheckReconnectAction+0x26>
	{
		gReconCount = 2;
		Bt_SndCmdReconnect();
	}
	else{
		Bt_SndCmdStartDiscovery();
    2318:	f000 f896 	bl	2448 <Bt_SndCmdStartDiscovery>
	}

	return;
    231c:	46c0      	nop			; (mov r8, r8)
}
    231e:	46bd      	mov	sp, r7
    2320:	bd80      	pop	{r7, pc}
    2322:	46c0      	nop			; (mov r8, r8)
    2324:	100049b2 	.word	0x100049b2
    2328:	10010824 	.word	0x10010824

0000232c <Bt_SndCmdPwroff>:


void Bt_SndCmdPwroff()
{
    232c:	b580      	push	{r7, lr}
    232e:	b082      	sub	sp, #8
    2330:	af00      	add	r7, sp, #0
  \details Disables IRQ interrupts by setting the I-bit in the CPSR.
  Can only be executed in Privileged modes.
 */
__attribute__( ( always_inline ) ) __STATIC_INLINE void __disable_irq(void)
{
  __ASM volatile ("cpsid i" : : : "memory");
    2332:	b672      	cpsid	i
	//disable interrupt,will disable keyscan
	OS_ENTER_CRITICAL();
	gBRState.topState = BR_POWER_OFF;
    2334:	4b0e      	ldr	r3, [pc, #56]	; (2370 <Bt_SndCmdPwroff+0x44>)
    2336:	2200      	movs	r2, #0
    2338:	761a      	strb	r2, [r3, #24]
	IPC_TxControlCmd(BT_CMD_ENTER_HIBERNATE);
    233a:	2019      	movs	r0, #25
    233c:	f004 fb2e 	bl	699c <IPC_TxControlCmd>
	
	while(1){
	 	uint8_t temp = HREAD(IPC_MCU_STATE);
    2340:	4a0c      	ldr	r2, [pc, #48]	; (2374 <Bt_SndCmdPwroff+0x48>)
    2342:	1dfb      	adds	r3, r7, #7
    2344:	7812      	ldrb	r2, [r2, #0]
    2346:	701a      	strb	r2, [r3, #0]
		if (temp == IPC_MCU_STATE_HIBERNATE)
    2348:	1dfb      	adds	r3, r7, #7
    234a:	781b      	ldrb	r3, [r3, #0]
    234c:	2b01      	cmp	r3, #1
    234e:	d105      	bne.n	235c <Bt_SndCmdPwroff+0x30>
		{	
			Bt_ActionBeforeHibernate();
    2350:	f000 f81a 	bl	2388 <Bt_ActionBeforeHibernate>
			HWRITE(IPC_MCU_STATE,IPC_MCU_STATE_STOP);
    2354:	4b07      	ldr	r3, [pc, #28]	; (2374 <Bt_SndCmdPwroff+0x48>)
    2356:	2203      	movs	r2, #3
    2358:	701a      	strb	r2, [r3, #0]
			while(1);
    235a:	e7fe      	b.n	235a <Bt_SndCmdPwroff+0x2e>
		}
		else if (temp == IPC_MCU_STATE_LMP){
    235c:	1dfb      	adds	r3, r7, #7
    235e:	781b      	ldrb	r3, [r3, #0]
    2360:	2b02      	cmp	r3, #2
    2362:	d102      	bne.n	236a <Bt_SndCmdPwroff+0x3e>
			HWRITE(IPC_MCU_STATE,IPC_MCU_STATE_RUNNING);
    2364:	4b03      	ldr	r3, [pc, #12]	; (2374 <Bt_SndCmdPwroff+0x48>)
    2366:	2200      	movs	r2, #0
    2368:	701a      	strb	r2, [r3, #0]
		}
		hw_delay();
    236a:	f7fe fc5b 	bl	c24 <hw_delay>
	}
    236e:	e7e7      	b.n	2340 <Bt_SndCmdPwroff+0x14>
    2370:	100108b0 	.word	0x100108b0
    2374:	10004334 	.word	0x10004334

00002378 <Bt_ActionBeforeLpm>:
}

void Bt_ActionBeforeLpm()
{
    2378:	b580      	push	{r7, lr}
    237a:	af00      	add	r7, sp, #0
	//gpio leakage of electricity
	Bat_ClcGpio();
    237c:	f007 f8c2 	bl	9504 <Bat_ClcGpio>
  				break;
		}
		regaddr++;
	}
**/
}
    2380:	46c0      	nop			; (mov r8, r8)
    2382:	46bd      	mov	sp, r7
    2384:	bd80      	pop	{r7, pc}
    2386:	46c0      	nop			; (mov r8, r8)

00002388 <Bt_ActionBeforeHibernate>:

void Bt_ActionBeforeHibernate()
{
    2388:	b580      	push	{r7, lr}
    238a:	af00      	add	r7, sp, #0
	//gpio leakage of electricity
	Bat_ClcGpio();
    238c:	f007 f8ba 	bl	9504 <Bat_ClcGpio>
}
    2390:	46c0      	nop			; (mov r8, r8)
    2392:	46bd      	mov	sp, r7
    2394:	bd80      	pop	{r7, pc}
    2396:	46c0      	nop			; (mov r8, r8)

00002398 <Bt_SndCmdWaitPwroff>:

void Bt_SndCmdWaitPwroff()
{
    2398:	b580      	push	{r7, lr}
    239a:	af00      	add	r7, sp, #0
//	return;

	if (gBRState.topState != BR_POWER_ON)
    239c:	4b1c      	ldr	r3, [pc, #112]	; (2410 <Bt_SndCmdWaitPwroff+0x78>)
    239e:	7e1b      	ldrb	r3, [r3, #24]
    23a0:	2b04      	cmp	r3, #4
    23a2:	d132      	bne.n	240a <Bt_SndCmdWaitPwroff+0x72>
		return;

	DEBUG_LOG(LOG_LEVEL_CORE, "UI" ,"Bt_SndCmdWaitPwroff: 0x%04X", LOG_POINT_A207, gBRState.topState);
    23a4:	46c0      	nop			; (mov r8, r8)
	Bt_ReleaseReconTimer();
    23a6:	f000 f961 	bl	266c <Bt_ReleaseReconTimer>
	
	//led_send_bgevt(LED_ALL_OFF);
	led_clear_led();
    23aa:	f004 fd53 	bl	6e54 <led_clear_led>
	Bt_ProcessLedFunc(LED_EVT_POWER_OFF);
    23ae:	2001      	movs	r0, #1
    23b0:	f004 fedc 	bl	716c <Bt_ProcessLedFunc>
	VP_snd_voiceEvt(VP_POWEROFF);
    23b4:	2001      	movs	r0, #1
    23b6:	f006 fae9 	bl	898c <VP_snd_voiceEvt>
	
	//temp code
	Lpm_LockLpm(HIBER_LPM_FLAG);
    23ba:	2080      	movs	r0, #128	; 0x80
    23bc:	f004 fc8a 	bl	6cd4 <Lpm_LockLpm>

	Bt_SetAutoPwroffTimer(AUTO_POWEROFF_WAIT,true,Bt_CBAutoPwroff);
    23c0:	4b14      	ldr	r3, [pc, #80]	; (2414 <Bt_SndCmdWaitPwroff+0x7c>)
    23c2:	001a      	movs	r2, r3
    23c4:	2101      	movs	r1, #1
    23c6:	2032      	movs	r0, #50	; 0x32
    23c8:	f7ff fe84 	bl	20d4 <Bt_SetAutoPwroffTimer>
	gBRState.topState = BR_WAIT_POWER_OFF;
    23cc:	4b10      	ldr	r3, [pc, #64]	; (2410 <Bt_SndCmdWaitPwroff+0x78>)
    23ce:	2201      	movs	r2, #1
    23d0:	761a      	strb	r2, [r3, #24]
	{
		Lpm_LockLpm(LINK_LPM_FLAG);
		Bt_SndCmdDisconnect();
	}
#else
	if (gBRState.twsState == BR_TWS_MASTER_CONNECTED)
    23d2:	4b0f      	ldr	r3, [pc, #60]	; (2410 <Bt_SndCmdWaitPwroff+0x78>)
    23d4:	7edb      	ldrb	r3, [r3, #27]
    23d6:	2b17      	cmp	r3, #23
    23d8:	d102      	bne.n	23e0 <Bt_SndCmdWaitPwroff+0x48>
	{
		Bt_SndCmdTwsMasterSwitch();
    23da:	f000 f9b5 	bl	2748 <Bt_SndCmdTwsMasterSwitch>
    23de:	e015      	b.n	240c <Bt_SndCmdWaitPwroff+0x74>
	}
	else if (gBRState.twsState == BR_TWS_SLAVE_CONNECTED){
    23e0:	4b0b      	ldr	r3, [pc, #44]	; (2410 <Bt_SndCmdWaitPwroff+0x78>)
    23e2:	7edb      	ldrb	r3, [r3, #27]
    23e4:	2b16      	cmp	r3, #22
    23e6:	d102      	bne.n	23ee <Bt_SndCmdWaitPwroff+0x56>
		Bt_SndCmdtwsPwroff();
    23e8:	f000 f8ac 	bl	2544 <Bt_SndCmdtwsPwroff>
    23ec:	e00e      	b.n	240c <Bt_SndCmdWaitPwroff+0x74>
	}
	else if (gBRState.twsState != BR_TWS_MASTER_CONNECTED 
    23ee:	4b08      	ldr	r3, [pc, #32]	; (2410 <Bt_SndCmdWaitPwroff+0x78>)
    23f0:	7edb      	ldrb	r3, [r3, #27]
    23f2:	2b17      	cmp	r3, #23
    23f4:	d00a      	beq.n	240c <Bt_SndCmdWaitPwroff+0x74>
		&& gBRState.secondState >= BR_CONNECTING)
    23f6:	4b06      	ldr	r3, [pc, #24]	; (2410 <Bt_SndCmdWaitPwroff+0x78>)
    23f8:	7e5b      	ldrb	r3, [r3, #25]
    23fa:	2b08      	cmp	r3, #8
    23fc:	d906      	bls.n	240c <Bt_SndCmdWaitPwroff+0x74>
	{
		Lpm_LockLpm(LINK_LPM_FLAG);
    23fe:	2010      	movs	r0, #16
    2400:	f004 fc68 	bl	6cd4 <Lpm_LockLpm>
		Bt_SndCmdDisconnect();
    2404:	f000 f818 	bl	2438 <Bt_SndCmdDisconnect>
    2408:	e000      	b.n	240c <Bt_SndCmdWaitPwroff+0x74>
void Bt_SndCmdWaitPwroff()
{
//	return;

	if (gBRState.topState != BR_POWER_ON)
		return;
    240a:	46c0      	nop			; (mov r8, r8)
	{
		Lpm_LockLpm(LINK_LPM_FLAG);
		Bt_SndCmdDisconnect();
	}	
#endif //SYNC_POWER_OFF
}
    240c:	46bd      	mov	sp, r7
    240e:	bd80      	pop	{r7, pc}
    2410:	100108b0 	.word	0x100108b0
    2414:	0000202d 	.word	0x0000202d

00002418 <Bt_SndCmdChargeFullPoweroff>:

void Bt_SndCmdChargeFullPoweroff()
{
    2418:	b580      	push	{r7, lr}
    241a:	af00      	add	r7, sp, #0
	IPC_TxControlCmd(BT_CMD_CHARGE_FULL_POWEROFF);
    241c:	208c      	movs	r0, #140	; 0x8c
    241e:	f004 fabd 	bl	699c <IPC_TxControlCmd>
}
    2422:	46c0      	nop			; (mov r8, r8)
    2424:	46bd      	mov	sp, r7
    2426:	bd80      	pop	{r7, pc}

00002428 <Bt_SndCmdChargeDisconnect>:

void Bt_SndCmdChargeDisconnect()
{
    2428:	b580      	push	{r7, lr}
    242a:	af00      	add	r7, sp, #0
	IPC_TxControlCmd(BT_CMD_CHARGE_DISCONNECT);
    242c:	208d      	movs	r0, #141	; 0x8d
    242e:	f004 fab5 	bl	699c <IPC_TxControlCmd>
}
    2432:	46c0      	nop			; (mov r8, r8)
    2434:	46bd      	mov	sp, r7
    2436:	bd80      	pop	{r7, pc}

00002438 <Bt_SndCmdDisconnect>:

void Bt_SndCmdDisconnect()
{
    2438:	b580      	push	{r7, lr}
    243a:	af00      	add	r7, sp, #0
	IPC_TxControlCmd(BT_CMD_DISCONNECT);
    243c:	2004      	movs	r0, #4
    243e:	f004 faad 	bl	699c <IPC_TxControlCmd>
}
    2442:	46c0      	nop			; (mov r8, r8)
    2444:	46bd      	mov	sp, r7
    2446:	bd80      	pop	{r7, pc}

00002448 <Bt_SndCmdStartDiscovery>:

void Bt_SndCmdStartDiscovery()
{
    2448:	b580      	push	{r7, lr}
    244a:	af00      	add	r7, sp, #0
	IPC_TxControlCmd(BT_CMD_START_DISCOVERY);
    244c:	2001      	movs	r0, #1
    244e:	f004 faa5 	bl	699c <IPC_TxControlCmd>
}
    2452:	46c0      	nop			; (mov r8, r8)
    2454:	46bd      	mov	sp, r7
    2456:	bd80      	pop	{r7, pc}

00002458 <Bt_SndCmdStopDiscovery>:

void Bt_SndCmdStopDiscovery()
{
    2458:	b580      	push	{r7, lr}
    245a:	af00      	add	r7, sp, #0
	Bt_ReleaseReconnectPhoneTimer();
    245c:	f000 f932 	bl	26c4 <Bt_ReleaseReconnectPhoneTimer>
	IPC_TxControlCmd(BT_CMD_STOP_DISCOVERY);
    2460:	2002      	movs	r0, #2
    2462:	f004 fa9b 	bl	699c <IPC_TxControlCmd>
}
    2466:	46c0      	nop			; (mov r8, r8)
    2468:	46bd      	mov	sp, r7
    246a:	bd80      	pop	{r7, pc}

0000246c <Bt_SndCmdReconnect>:


void Bt_SndCmdReconnect()
{
    246c:	b580      	push	{r7, lr}
    246e:	af00      	add	r7, sp, #0
	// To workaround mem_plap will clear by some case
	Bt_SndCmdLoadInfo();
    2470:	f000 f870 	bl	2554 <Bt_SndCmdLoadInfo>
	IPC_TxControlCmd(BT_CMD_RECONNECT);
    2474:	2003      	movs	r0, #3
    2476:	f004 fa91 	bl	699c <IPC_TxControlCmd>
}
    247a:	46c0      	nop			; (mov r8, r8)
    247c:	46bd      	mov	sp, r7
    247e:	bd80      	pop	{r7, pc}

00002480 <Bt_SndCmdStartTwsPair>:

void Bt_SndCmdStartTwsPair()
{
    2480:	b580      	push	{r7, lr}
    2482:	af00      	add	r7, sp, #0
	IPC_TxControlCmd(BT_CMD_ENTER_TWS_PAIR);
    2484:	2040      	movs	r0, #64	; 0x40
    2486:	f004 fa89 	bl	699c <IPC_TxControlCmd>
}
    248a:	46c0      	nop			; (mov r8, r8)
    248c:	46bd      	mov	sp, r7
    248e:	bd80      	pop	{r7, pc}

00002490 <Bt_SndCmdPlayPause>:

void Bt_SndCmdPlayPause()
{
    2490:	b580      	push	{r7, lr}
    2492:	af00      	add	r7, sp, #0
	if (!Bt_CheckAVRCPConnected())
    2494:	f000 f9ca 	bl	282c <Bt_CheckAVRCPConnected>
    2498:	0003      	movs	r3, r0
    249a:	001a      	movs	r2, r3
    249c:	2301      	movs	r3, #1
    249e:	4053      	eors	r3, r2
    24a0:	b2db      	uxtb	r3, r3
    24a2:	2b00      	cmp	r3, #0
    24a4:	d103      	bne.n	24ae <Bt_SndCmdPlayPause+0x1e>
		return;
	IPC_TxControlCmd(BT_CMD_PLAY_PAUSE);
    24a6:	2031      	movs	r0, #49	; 0x31
    24a8:	f004 fa78 	bl	699c <IPC_TxControlCmd>
    24ac:	e000      	b.n	24b0 <Bt_SndCmdPlayPause+0x20>
}

void Bt_SndCmdPlayPause()
{
	if (!Bt_CheckAVRCPConnected())
		return;
    24ae:	46c0      	nop			; (mov r8, r8)
	IPC_TxControlCmd(BT_CMD_PLAY_PAUSE);
}
    24b0:	46bd      	mov	sp, r7
    24b2:	bd80      	pop	{r7, pc}

000024b4 <Bt_SndCmdAcceptCall>:

void Bt_SndCmdAcceptCall()
{
    24b4:	b580      	push	{r7, lr}
    24b6:	af00      	add	r7, sp, #0
	IPC_TxControlCmd(BT_CMD_ACCEPT_CALL);
    24b8:	2032      	movs	r0, #50	; 0x32
    24ba:	f004 fa6f 	bl	699c <IPC_TxControlCmd>
}
    24be:	46c0      	nop			; (mov r8, r8)
    24c0:	46bd      	mov	sp, r7
    24c2:	bd80      	pop	{r7, pc}

000024c4 <Bt_SndCmdHangup>:

void Bt_SndCmdHangup()
{
    24c4:	b580      	push	{r7, lr}
    24c6:	af00      	add	r7, sp, #0
	IPC_TxControlCmd(BT_CMD_HANG_UP);
    24c8:	2033      	movs	r0, #51	; 0x33
    24ca:	f004 fa67 	bl	699c <IPC_TxControlCmd>
}
    24ce:	46c0      	nop			; (mov r8, r8)
    24d0:	46bd      	mov	sp, r7
    24d2:	bd80      	pop	{r7, pc}

000024d4 <Bt_SndCmdRejectCall>:

void Bt_SndCmdRejectCall()
{
    24d4:	b580      	push	{r7, lr}
    24d6:	af00      	add	r7, sp, #0
	IPC_TxControlCmd(BT_CMD_REJECT_CALL);
    24d8:	2034      	movs	r0, #52	; 0x34
    24da:	f004 fa5f 	bl	699c <IPC_TxControlCmd>
}
    24de:	46c0      	nop			; (mov r8, r8)
    24e0:	46bd      	mov	sp, r7
    24e2:	bd80      	pop	{r7, pc}

000024e4 <Bt_SndCmdRedial>:

void Bt_SndCmdRedial()
{
    24e4:	b580      	push	{r7, lr}
    24e6:	af00      	add	r7, sp, #0
	IPC_TxControlCmd(BT_CMD_REDIAL);
    24e8:	2035      	movs	r0, #53	; 0x35
    24ea:	f004 fa57 	bl	699c <IPC_TxControlCmd>
}
    24ee:	46c0      	nop			; (mov r8, r8)
    24f0:	46bd      	mov	sp, r7
    24f2:	bd80      	pop	{r7, pc}

000024f4 <Bt_SndCmdWaitMaster>:

void Bt_SndCmdWaitMaster()
{
    24f4:	b580      	push	{r7, lr}
    24f6:	af00      	add	r7, sp, #0
	IPC_TxControlCmd(BT_CMD_START_WAIT_MASTER);
    24f8:	2044      	movs	r0, #68	; 0x44
    24fa:	f004 fa4f 	bl	699c <IPC_TxControlCmd>
}
    24fe:	46c0      	nop			; (mov r8, r8)
    2500:	46bd      	mov	sp, r7
    2502:	bd80      	pop	{r7, pc}

00002504 <Bt_SndCmdTwsUser1>:

void Bt_SndCmdTwsUser1()
{
    2504:	b580      	push	{r7, lr}
    2506:	af00      	add	r7, sp, #0
	IPC_TxControlCmd(TWS_SYNC_CMD_USER1);
    2508:	2063      	movs	r0, #99	; 0x63
    250a:	f004 fa47 	bl	699c <IPC_TxControlCmd>
}
    250e:	46c0      	nop			; (mov r8, r8)
    2510:	46bd      	mov	sp, r7
    2512:	bd80      	pop	{r7, pc}

00002514 <Bt_SndCmdTwsUser2>:

void Bt_SndCmdTwsUser2()
{
    2514:	b580      	push	{r7, lr}
    2516:	af00      	add	r7, sp, #0
	IPC_TxControlCmd(TWS_SYNC_CMD_USER2);
    2518:	2064      	movs	r0, #100	; 0x64
    251a:	f004 fa3f 	bl	699c <IPC_TxControlCmd>
}
    251e:	46c0      	nop			; (mov r8, r8)
    2520:	46bd      	mov	sp, r7
    2522:	bd80      	pop	{r7, pc}

00002524 <Bt_SndCmdTwsUser3>:

void Bt_SndCmdTwsUser3()
{
    2524:	b580      	push	{r7, lr}
    2526:	af00      	add	r7, sp, #0
	IPC_TxControlCmd(TWS_SYNC_CMD_USER3);
    2528:	2065      	movs	r0, #101	; 0x65
    252a:	f004 fa37 	bl	699c <IPC_TxControlCmd>
}
    252e:	46c0      	nop			; (mov r8, r8)
    2530:	46bd      	mov	sp, r7
    2532:	bd80      	pop	{r7, pc}

00002534 <Bt_SndCmdTwsUser4>:

void Bt_SndCmdTwsUser4()
{
    2534:	b580      	push	{r7, lr}
    2536:	af00      	add	r7, sp, #0
	IPC_TxControlCmd(TWS_SYNC_CMD_USER4);
    2538:	2066      	movs	r0, #102	; 0x66
    253a:	f004 fa2f 	bl	699c <IPC_TxControlCmd>
}
    253e:	46c0      	nop			; (mov r8, r8)
    2540:	46bd      	mov	sp, r7
    2542:	bd80      	pop	{r7, pc}

00002544 <Bt_SndCmdtwsPwroff>:

void Bt_SndCmdtwsPwroff()
{
    2544:	b580      	push	{r7, lr}
    2546:	af00      	add	r7, sp, #0
	IPC_TxControlCmd(TWS_SYNC_CMD_POWR_OFF);
    2548:	2060      	movs	r0, #96	; 0x60
    254a:	f004 fa27 	bl	699c <IPC_TxControlCmd>
}
    254e:	46c0      	nop			; (mov r8, r8)
    2550:	46bd      	mov	sp, r7
    2552:	bd80      	pop	{r7, pc}

00002554 <Bt_SndCmdLoadInfo>:

void Bt_SndCmdLoadInfo()
{
    2554:	b580      	push	{r7, lr}
    2556:	af00      	add	r7, sp, #0
	IPC_TxControlCmd(BT_CMD_LOAD_INFO);
    2558:	2080      	movs	r0, #128	; 0x80
    255a:	f004 fa1f 	bl	699c <IPC_TxControlCmd>
}
    255e:	46c0      	nop			; (mov r8, r8)
    2560:	46bd      	mov	sp, r7
    2562:	bd80      	pop	{r7, pc}

00002564 <Bt_SndCmdRecoverAudio>:

void Bt_SndCmdRecoverAudio()
{
    2564:	b580      	push	{r7, lr}
    2566:	af00      	add	r7, sp, #0
	VP_cvsd_init();
    2568:	f006 fed6 	bl	9318 <VP_cvsd_init>
	IPC_TxControlCmd(BT_CMD_RECOVER_AUDIO);
    256c:	2081      	movs	r0, #129	; 0x81
    256e:	f004 fa15 	bl	699c <IPC_TxControlCmd>
	#ifdef AUDIO_SYNC_DEF
	if(g_is_need_send_slave_reset_audio_cmd != 0)
    2572:	4b0b      	ldr	r3, [pc, #44]	; (25a0 <Bt_SndCmdRecoverAudio+0x3c>)
    2574:	781b      	ldrb	r3, [r3, #0]
    2576:	2b00      	cmp	r3, #0
    2578:	d005      	beq.n	2586 <Bt_SndCmdRecoverAudio+0x22>
	{
		g_is_need_send_slave_reset_audio_cmd = 0;
    257a:	4b09      	ldr	r3, [pc, #36]	; (25a0 <Bt_SndCmdRecoverAudio+0x3c>)
    257c:	2200      	movs	r2, #0
    257e:	701a      	strb	r2, [r3, #0]
		Bt_SndCmdSlaveResetAudio();
    2580:	f000 fb92 	bl	2ca8 <Bt_SndCmdSlaveResetAudio>
			Bt_SndCmdResetAudio();
		}
	}
	#endif //AUDIO_SYNC_DEF

}
    2584:	e008      	b.n	2598 <Bt_SndCmdRecoverAudio+0x34>
		g_is_need_send_slave_reset_audio_cmd = 0;
		Bt_SndCmdSlaveResetAudio();
	}
	else
	{
		if(0 != gHfpWorkingState)
    2586:	4b07      	ldr	r3, [pc, #28]	; (25a4 <Bt_SndCmdRecoverAudio+0x40>)
    2588:	781b      	ldrb	r3, [r3, #0]
    258a:	2b00      	cmp	r3, #0
    258c:	d002      	beq.n	2594 <Bt_SndCmdRecoverAudio+0x30>
		{
			Bt_SndCmdHFPStartSync();
    258e:	f000 fb6f 	bl	2c70 <Bt_SndCmdHFPStartSync>
			Bt_SndCmdResetAudio();
		}
	}
	#endif //AUDIO_SYNC_DEF

}
    2592:	e001      	b.n	2598 <Bt_SndCmdRecoverAudio+0x34>
		{
			Bt_SndCmdHFPStartSync();
		}
		else
		{
			Bt_SndCmdResetAudio();
    2594:	f000 fb0c 	bl	2bb0 <Bt_SndCmdResetAudio>
		}
	}
	#endif //AUDIO_SYNC_DEF

}
    2598:	46c0      	nop			; (mov r8, r8)
    259a:	46bd      	mov	sp, r7
    259c:	bd80      	pop	{r7, pc}
    259e:	46c0      	nop			; (mov r8, r8)
    25a0:	10010862 	.word	0x10010862
    25a4:	1001090c 	.word	0x1001090c

000025a8 <Bt_SndCmdBatRep>:

void Bt_SndCmdBatRep()
{
    25a8:	b580      	push	{r7, lr}
    25aa:	af00      	add	r7, sp, #0
	IPC_TxControlCmd(BT_CMD_REPORT_BAT);
    25ac:	2082      	movs	r0, #130	; 0x82
    25ae:	f004 f9f5 	bl	699c <IPC_TxControlCmd>
}
    25b2:	46c0      	nop			; (mov r8, r8)
    25b4:	46bd      	mov	sp, r7
    25b6:	bd80      	pop	{r7, pc}

000025b8 <Bt_SndCmdWaitSlave>:

void Bt_SndCmdWaitSlave()
{
    25b8:	b580      	push	{r7, lr}
    25ba:	af00      	add	r7, sp, #0
	IPC_TxControlCmd(BT_CMD_START_WAIT_SLAVE);
    25bc:	2046      	movs	r0, #70	; 0x46
    25be:	f004 f9ed 	bl	699c <IPC_TxControlCmd>
}
    25c2:	46c0      	nop			; (mov r8, r8)
    25c4:	46bd      	mov	sp, r7
    25c6:	bd80      	pop	{r7, pc}

000025c8 <Bt_SndCmdEnableSniffMul>:

void Bt_SndCmdEnableSniffMul()
{
    25c8:	b580      	push	{r7, lr}
    25ca:	af00      	add	r7, sp, #0
	IPC_TxControlCmd(BT_CMD_ENABLE_SNIFF_MUL);
    25cc:	2084      	movs	r0, #132	; 0x84
    25ce:	f004 f9e5 	bl	699c <IPC_TxControlCmd>
}
    25d2:	46c0      	nop			; (mov r8, r8)
    25d4:	46bd      	mov	sp, r7
    25d6:	bd80      	pop	{r7, pc}

000025d8 <Bt_SndCmdDisableSniffMul>:

void Bt_SndCmdDisableSniffMul()
{
    25d8:	b580      	push	{r7, lr}
    25da:	af00      	add	r7, sp, #0
	IPC_TxControlCmd(BT_CMD_DISABLE_SNIFF_MUL);
    25dc:	2085      	movs	r0, #133	; 0x85
    25de:	f004 f9dd 	bl	699c <IPC_TxControlCmd>
}
    25e2:	46c0      	nop			; (mov r8, r8)
    25e4:	46bd      	mov	sp, r7
    25e6:	bd80      	pop	{r7, pc}

000025e8 <Bt_SndCmdEnterSniff>:

void Bt_SndCmdEnterSniff()
{
    25e8:	b580      	push	{r7, lr}
    25ea:	af00      	add	r7, sp, #0
	IPC_TxControlCmd(BT_CMD_ENTER_SNIFF);
    25ec:	2005      	movs	r0, #5
    25ee:	f004 f9d5 	bl	699c <IPC_TxControlCmd>
}
    25f2:	46c0      	nop			; (mov r8, r8)
    25f4:	46bd      	mov	sp, r7
    25f6:	bd80      	pop	{r7, pc}

000025f8 <Bt_SndCmdExitSniff>:

void Bt_SndCmdExitSniff()
{
    25f8:	b580      	push	{r7, lr}
    25fa:	af00      	add	r7, sp, #0
	IPC_TxControlCmd(BT_CMD_EXIT_SNIFF);
    25fc:	2006      	movs	r0, #6
    25fe:	f004 f9cd 	bl	699c <IPC_TxControlCmd>
}
    2602:	46c0      	nop			; (mov r8, r8)
    2604:	46bd      	mov	sp, r7
    2606:	bd80      	pop	{r7, pc}

00002608 <Bt_SndCmdUpdateHFPState>:

void Bt_SndCmdUpdateHFPState()
{
    2608:	b580      	push	{r7, lr}
    260a:	af00      	add	r7, sp, #0
	IPC_TxControlCmd(BT_CMD_HFP_INDICATORS_UPDATE);
    260c:	2088      	movs	r0, #136	; 0x88
    260e:	f004 f9c5 	bl	699c <IPC_TxControlCmd>
}
    2612:	46c0      	nop			; (mov r8, r8)
    2614:	46bd      	mov	sp, r7
    2616:	bd80      	pop	{r7, pc}

00002618 <TwsCB_Recon_Timeout>:

void TwsCB_Recon_Timeout(int params)
{
    2618:	b580      	push	{r7, lr}
    261a:	b082      	sub	sp, #8
    261c:	af00      	add	r7, sp, #0
    261e:	6078      	str	r0, [r7, #4]
	VP_snd_voiceEvt(VP_POWERON);
    2620:	2000      	movs	r0, #0
    2622:	f006 f9b3 	bl	898c <VP_snd_voiceEvt>
	Bt_SndCmdStopReconTws();
    2626:	f000 f859 	bl	26dc <Bt_SndCmdStopReconTws>
	Bt_CheckReconnectAction();
    262a:	f7ff fe65 	bl	22f8 <Bt_CheckReconnectAction>
}
    262e:	46c0      	nop			; (mov r8, r8)
    2630:	46bd      	mov	sp, r7
    2632:	b002      	add	sp, #8
    2634:	bd80      	pop	{r7, pc}
    2636:	46c0      	nop			; (mov r8, r8)

00002638 <Bt_SndCmdStartReconTws>:

void Bt_SndCmdStartReconTws()
{
    2638:	b580      	push	{r7, lr}
    263a:	af00      	add	r7, sp, #0
	SYS_SetTimer(&gReconTimer, 150, TIMER_SINGLE, TwsCB_Recon_Timeout);
    263c:	4b05      	ldr	r3, [pc, #20]	; (2654 <Bt_SndCmdStartReconTws+0x1c>)
    263e:	4806      	ldr	r0, [pc, #24]	; (2658 <Bt_SndCmdStartReconTws+0x20>)
    2640:	2200      	movs	r2, #0
    2642:	2196      	movs	r1, #150	; 0x96
    2644:	f001 fbd6 	bl	3df4 <SYS_SetTimer>
	IPC_TxControlCmd(BT_CMD_START_RECON_TWS);
    2648:	2042      	movs	r0, #66	; 0x42
    264a:	f004 f9a7 	bl	699c <IPC_TxControlCmd>
}
    264e:	46c0      	nop			; (mov r8, r8)
    2650:	46bd      	mov	sp, r7
    2652:	bd80      	pop	{r7, pc}
    2654:	00002619 	.word	0x00002619
    2658:	10010910 	.word	0x10010910

0000265c <Bt_SndCmdSndIncPwr>:

void Bt_SndCmdSndIncPwr()
{
    265c:	b580      	push	{r7, lr}
    265e:	af00      	add	r7, sp, #0
	IPC_TxControlCmd(BT_CMD_INC_POWER);
    2660:	2083      	movs	r0, #131	; 0x83
    2662:	f004 f99b 	bl	699c <IPC_TxControlCmd>
}
    2666:	46c0      	nop			; (mov r8, r8)
    2668:	46bd      	mov	sp, r7
    266a:	bd80      	pop	{r7, pc}

0000266c <Bt_ReleaseReconTimer>:

void Bt_ReleaseReconTimer()
{
    266c:	b580      	push	{r7, lr}
    266e:	af00      	add	r7, sp, #0
	SYS_ReleaseTimer(&gReconTimer);
    2670:	4b03      	ldr	r3, [pc, #12]	; (2680 <Bt_ReleaseReconTimer+0x14>)
    2672:	0018      	movs	r0, r3
    2674:	f001 fcf4 	bl	4060 <SYS_ReleaseTimer>
}
    2678:	46c0      	nop			; (mov r8, r8)
    267a:	46bd      	mov	sp, r7
    267c:	bd80      	pop	{r7, pc}
    267e:	46c0      	nop			; (mov r8, r8)
    2680:	10010910 	.word	0x10010910

00002684 <BtCB_ReconnectPhoneTimeout>:


void BtCB_ReconnectPhoneTimeout(int params)
{
    2684:	b580      	push	{r7, lr}
    2686:	b082      	sub	sp, #8
    2688:	af00      	add	r7, sp, #0
    268a:	6078      	str	r0, [r7, #4]
	Bt_SndCmdStopDiscovery();
    268c:	f7ff fee4 	bl	2458 <Bt_SndCmdStopDiscovery>
	Bt_SndCmdReconnect();
    2690:	f7ff feec 	bl	246c <Bt_SndCmdReconnect>
}
    2694:	46c0      	nop			; (mov r8, r8)
    2696:	46bd      	mov	sp, r7
    2698:	b002      	add	sp, #8
    269a:	bd80      	pop	{r7, pc}

0000269c <Bt_StartReconnectPhoneTimer>:
void Bt_StartReconnectPhoneTimer()
{
    269c:	b580      	push	{r7, lr}
    269e:	af00      	add	r7, sp, #0
	SYS_SetTimer(&gBtReconWorkTimer, gReconWorkTimeout, TIMER_SINGLE, BtCB_ReconnectPhoneTimeout);
    26a0:	4b05      	ldr	r3, [pc, #20]	; (26b8 <Bt_StartReconnectPhoneTimer+0x1c>)
    26a2:	881b      	ldrh	r3, [r3, #0]
    26a4:	0019      	movs	r1, r3
    26a6:	4b05      	ldr	r3, [pc, #20]	; (26bc <Bt_StartReconnectPhoneTimer+0x20>)
    26a8:	4805      	ldr	r0, [pc, #20]	; (26c0 <Bt_StartReconnectPhoneTimer+0x24>)
    26aa:	2200      	movs	r2, #0
    26ac:	f001 fba2 	bl	3df4 <SYS_SetTimer>
}
    26b0:	46c0      	nop			; (mov r8, r8)
    26b2:	46bd      	mov	sp, r7
    26b4:	bd80      	pop	{r7, pc}
    26b6:	46c0      	nop			; (mov r8, r8)
    26b8:	10010932 	.word	0x10010932
    26bc:	00002685 	.word	0x00002685
    26c0:	100108d8 	.word	0x100108d8

000026c4 <Bt_ReleaseReconnectPhoneTimer>:
void Bt_ReleaseReconnectPhoneTimer()
{
    26c4:	b580      	push	{r7, lr}
    26c6:	af00      	add	r7, sp, #0
	SYS_ReleaseTimer(&gBtReconWorkTimer);
    26c8:	4b03      	ldr	r3, [pc, #12]	; (26d8 <Bt_ReleaseReconnectPhoneTimer+0x14>)
    26ca:	0018      	movs	r0, r3
    26cc:	f001 fcc8 	bl	4060 <SYS_ReleaseTimer>
}
    26d0:	46c0      	nop			; (mov r8, r8)
    26d2:	46bd      	mov	sp, r7
    26d4:	bd80      	pop	{r7, pc}
    26d6:	46c0      	nop			; (mov r8, r8)
    26d8:	100108d8 	.word	0x100108d8

000026dc <Bt_SndCmdStopReconTws>:

void Bt_SndCmdStopReconTws()
{
    26dc:	b580      	push	{r7, lr}
    26de:	af00      	add	r7, sp, #0
	IPC_TxControlCmd(BT_CMD_STOP_RECON_TWS);
    26e0:	2043      	movs	r0, #67	; 0x43
    26e2:	f004 f95b 	bl	699c <IPC_TxControlCmd>
}
    26e6:	46c0      	nop			; (mov r8, r8)
    26e8:	46bd      	mov	sp, r7
    26ea:	bd80      	pop	{r7, pc}

000026ec <CB_SwitchToDisconnect>:

void CB_SwitchToDisconnect(int params)
{
    26ec:	b580      	push	{r7, lr}
    26ee:	b082      	sub	sp, #8
    26f0:	af00      	add	r7, sp, #0
    26f2:	6078      	str	r0, [r7, #4]
	Bt_SndCmdAcceptTwsSwitch();
    26f4:	f000 f80e 	bl	2714 <Bt_SndCmdAcceptTwsSwitch>
}
    26f8:	46c0      	nop			; (mov r8, r8)
    26fa:	46bd      	mov	sp, r7
    26fc:	b002      	add	sp, #8
    26fe:	bd80      	pop	{r7, pc}

00002700 <CB_SwitchToMaster>:

void CB_SwitchToMaster(int params)
{
    2700:	b580      	push	{r7, lr}
    2702:	b082      	sub	sp, #8
    2704:	af00      	add	r7, sp, #0
    2706:	6078      	str	r0, [r7, #4]
	Bt_SndCmdTwsSwitchToMaster();
    2708:	f000 f830 	bl	276c <Bt_SndCmdTwsSwitchToMaster>
}
    270c:	46c0      	nop			; (mov r8, r8)
    270e:	46bd      	mov	sp, r7
    2710:	b002      	add	sp, #8
    2712:	bd80      	pop	{r7, pc}

00002714 <Bt_SndCmdAcceptTwsSwitch>:

void Bt_SndCmdAcceptTwsSwitch()
{
    2714:	b580      	push	{r7, lr}
    2716:	af00      	add	r7, sp, #0
	IPC_TxControlCmd(TWS_SYNC_CMD_ACCPET_SWITCH);
    2718:	208b      	movs	r0, #139	; 0x8b
    271a:	f004 f93f 	bl	699c <IPC_TxControlCmd>
}
    271e:	46c0      	nop			; (mov r8, r8)
    2720:	46bd      	mov	sp, r7
    2722:	bd80      	pop	{r7, pc}

00002724 <Bt_SndSlavePwroff>:

void Bt_SndSlavePwroff()
{
    2724:	b580      	push	{r7, lr}
    2726:	af00      	add	r7, sp, #0
	SYS_SetTimer(&gSwithMasterTimer, 44, TIMER_SINGLE, CB_SwitchToDisconnect);
    2728:	4b05      	ldr	r3, [pc, #20]	; (2740 <Bt_SndSlavePwroff+0x1c>)
    272a:	4806      	ldr	r0, [pc, #24]	; (2744 <Bt_SndSlavePwroff+0x20>)
    272c:	2200      	movs	r2, #0
    272e:	212c      	movs	r1, #44	; 0x2c
    2730:	f001 fb60 	bl	3df4 <SYS_SetTimer>
	Bt_SndCmdtwsPwroff();
